# SymbolsHelper-Confirmed: 2.41 amd64 arm64 i386 x32
libgprofng.so.0 libgprofng0 #MINVER#
 ABS_PP_CODES@Base 2.41
 ABS_RT_CODES@Base 2.41
 DOBJ_ANON@Base 2.41
 DOBJ_UNASCERTAINABLE@Base 2.41
 DOBJ_UNDETERMINED@Base 2.41
 DOBJ_UNIDENTIFIED@Base 2.41
 DOBJ_UNRESOLVABLE@Base 2.41
 DOBJ_UNSPECIFIED@Base 2.41
 DOBJ_UNVERIFIABLE@Base 2.41
 _Z10dbeGetNameii@Base 2.41
 _Z10dbeSetSortii10MetricTypeb@Base 2.41
 _Z10getStackPCi5VModeP8DataViewl@Base 2.41
 _Z10get_fstypePc@Base 2.41
 _Z10out_of_memv@Base 2.41
 _Z11dbeGetAliasPc@Base 2.41
 _Z11dbeGetClockii@Base 2.41
 _Z11dbeGetFilesPKcS0_@Base 2.41
 _Z11dbeGetNamesiix@Base 2.41
 _Z11dbeInitViewii@Base 2.41
 _Z11dbeReadFilePKc@Base 2.41
 _Z11dbeSetAliasPcS_S_@Base 2.41
 _Z11dbe_archiveP6VectorIxEPS_IPKcE@Base 2.41
 _Z11getStackPCs5VModeP8DataViewl@Base 2.41
 _Z11print_labelP8_IO_FILEP10MetricListPN6Metric11HistMetricSEi@Base 2.41
 _Z12csv_ize_namePcc@Base 2.41
 _Z12dbeGetFuncIdiiii@Base 2.41
 _Z12dbeGetFuncIdix@Base 2.41
 _Z12dbeGetObjectixx@Base 2.41
 _Z12dbeGetSelObjiii@Base 2.41
 _Z12dbeGetSoNamei@Base 2.41
 _Z12dbeGetTLDataiiiiiixxibP6VectorIPcE@Base 2.41
 _Z12dbeGetTotalsiii@Base 2.41
 _Z12dbeHasTLDataiP6VectorIiES1_S1_S1_S1_@Base 2.41
 _Z12dbePrintDataiiiPcS_P8_IO_FILE@Base 2.41
 _Z12dbeSetSelObjixii@Base 2.41
 _Z12dbeWriteFilePKcS0_@Base 2.41
 _Z12print_headerP10ExperimentP8_IO_FILE@Base 2.41
 _Z13dbeAddPathmapiPcS_@Base 2.41
 _Z13dbeDeleteFilePKc@Base 2.41
 _Z13dbeDeleteViewi@Base 2.41
 _Z13dbeGetEndTimeii@Base 2.41
 _Z13dbeGetExpInfoi@Base 2.41
 _Z13dbeGetExpNamei@Base 2.41
 _Z13dbeGetExpNameiPc@Base 2.41
 _Z13dbeGetFiltersii@Base 2.41
 _Z13dbeGetFuncIdsiP6VectorIxE@Base 2.41
 _Z13dbeGetHwcHelpib@Base 2.41
 _Z13dbeGetHwcSetsib@Base 2.41
 _Z13dbeGetHwcsAllib@Base 2.41
 (arch=!x32)_Z13dbeGetSamplesiill@Base 2.41
 (arch=i386 x32)_Z13dbeGetSamplesiixx@Base 2.41
 _Z13dbeGetSummaryiP6VectorIxEii@Base 2.41
 _Z13dbeGetTLValuei@Base 2.41
 _Z13dbeGetTabListi@Base 2.41
 _Z13dbeReadRCFileiPc@Base 2.41
 _Z13dbeSendSignalii@Base 2.41
 _Z13dbeSetTLValueiPKciii@Base 2.41
 _Z13html_ize_namePc@Base 2.41
 _Z14dbeGetAnoValuei@Base 2.41
 _Z14dbeGetEntitiesiii@Base 2.41
 _Z14dbeGetExpStatei@Base 2.41
 _Z14dbeGetFuncListiii@Base 2.41
 _Z14dbeGetFuncNameix@Base 2.41
 (arch=!x32)_Z14dbeGetGCEventsiill@Base 2.41
 (arch=i386 x32)_Z14dbeGetGCEventsiixx@Base 2.41
 _Z14dbeGetGroupIdsi@Base 2.41
 _Z14dbeGetHostnameii@Base 2.41
 _Z14dbeGetHotMarksii@Base 2.41
 _Z14dbeGetLineInfox@Base 2.41
 _Z14dbeGetPathmapsi@Base 2.41
 _Z14dbeGetSelIndexixii@Base 2.41
 (arch=!x32)_Z14dbeGetSelObjIOimi@Base 2.41
 (arch=i386 x32)_Z14dbeGetSelObjIOiyi@Base 2.41
 _Z14dbeGetSelObjV2iPc@Base 2.41
 _Z14dbeGetStackPCsix@Base 2.41
 _Z14dbeGetTotalMaxiii@Base 2.41
 _Z14dbeGetViewModei@Base 2.41
 _Z14dbeSetAnoValueiP6VectorIiE@Base 2.41
 _Z14dbeSetFuncDataixii@Base 2.41
 _Z14dbeSetLocationPKcS0_@Base 2.41
 _Z14dbeSetPathmapsP6VectorIPcES2_@Base 2.41
 (arch=!x32)_Z14dbeSetSelObjV2im@Base 2.41
 (arch=i386 x32)_Z14dbeSetSelObjV2iy@Base 2.41
 _Z14dbeSetViewModeii@Base 2.41
 _Z14dbeUpdateNotesiiiPcb@Base 2.41
 _Z14dump_anno_fileP8_IO_FILEN8Histable4TypeEP6ModuleP7DbeViewP10MetricListP6TValuePKcP8FunctionP6VectorIiEiiibb@Base 2.41
 _Z14print_html_oneP8_IO_FILEP9Hist_dataPNS1_8HistItemEP10MetricListN8Histable10NameFormatE@Base 2.41
 _Z15dbeDefineMemObjPcS_S_S_S_@Base 2.41
 _Z15dbeDeleteMemObjPc@Base 2.41
 _Z15dbeGetExpEnablei@Base 2.41
 _Z15dbeGetExpParamsiPc@Base 2.41
 _Z15dbeGetFilterStri@Base 2.41
 _Z15dbeGetFuncNamesiP6VectorIxE@Base 2.41
 _Z15dbeGetIfreqDatai@Base 2.41
 (arch=!x32)_Z15dbeGetObjNameV2im@Base 2.41
 (arch=i386 x32)_Z15dbeGetObjNameV2iy@Base 2.41
 _Z15dbeGetPrintModei@Base 2.41
 (arch=!x32)_Z15dbeGetSelObjsIOiP6VectorImEi@Base 2.41
 (arch=i386 x32)_Z15dbeGetSelObjsIOiP6VectorIyEi@Base 2.41
 _Z15dbeGetStartTimeii@Base 2.41
 _Z15dbeGetSummaryV2iP6VectorIxEii@Base 2.41
 _Z15dbeGetTLDetailsiiiix@Base 2.41
 _Z15dbeGetUserExpIdP6VectorIiE@Base 2.41
 _Z15dbeSetExpEnableiP6VectorIbE@Base 2.41
 _Z15dbeSetFilterStriPc@Base 2.41
 _Z15dbeSetLocationsP6VectorIPKcES3_@Base 2.41
 _Z15dbeSetPrintModeiPc@Base 2.41
 _Z15leak_alloc_compPKvS0_@Base 2.41
 _Z15pr_load_objectsP6VectorIP10LoadObjectEPc@Base 2.41
 _Z15print_anno_filePcPKcS1_bP8_IO_FILES3_S3_P7DbeViewb@Base 2.41
 _Z15print_delim_oneP8_IO_FILEP9Hist_dataPNS1_8HistItemEP10MetricListN8Histable10NameFormatEc@Base 2.41
 _Z16dbeConvertSelObjxi@Base 2.41
 _Z16dbeDefineIndxObjPcS_S_S_@Base 2.41
 _Z16dbeGetEntitiesV2iP6VectorIiEi@Base 2.41
 _Z16dbeGetExpGroupIdP6VectorIiE@Base 2.41
 _Z16dbeGetExpPreviewiPc@Base 2.41
 _Z16dbeGetFuncListV2iixii@Base 2.41
 _Z16dbeGetJavaEnablev@Base 2.41
 _Z16dbeGetMemObjectsi@Base 2.41
 _Z16dbeGetNameFormati@Base 2.41
 (arch=!x32)_Z16dbeGetObjNamesV2iP6VectorImE@Base 2.41
 (arch=i386 x32)_Z16dbeGetObjNamesV2iP6VectorIyE@Base 2.41
 _Z16dbeGetPrintDelimi@Base 2.41
 _Z16dbeGetPrintLimiti@Base 2.41
 _Z16dbeGetSearchPathi@Base 2.41
 _Z16dbeGetStackNamesix@Base 2.41
 _Z16dbeGetStatisListi@Base 2.41
 _Z16dbeGetXYPlotDataiPcS_S_S_S_S_S_S_@Base 2.41
 _Z16dbeSetNameFormatiib@Base 2.41
 _Z16dbeSetPrintLimitii@Base 2.41
 _Z16dbeSetSearchPathiP6VectorIPcE@Base 2.41
 _Z16dbeUpdateFiltersiP6VectorIbEPS_IPcE@Base 2.41
 _Z16print_html_labelP8_IO_FILEP10MetricList@Base 2.41
 _Z16print_html_titleP8_IO_FILEPc@Base 2.41
 _Z17dbeDropExperimentiP6VectorIiE@Base 2.41
 _Z17dbeGetEntityPropsi@Base 2.41
 _Z17dbeGetHotMarksIncii@Base 2.41
 _Z17dbeGetHwcAttrListib@Base 2.41
 _Z17dbeGetSignalValuePc@Base 2.41
 _Z17dbeGetTabListInfoi@Base 2.41
 (arch=!x32)_Z17dbeGetTableDataV2iPcS_S_S_P6VectorImE@Base 2.41
 (arch=i386 x32)_Z17dbeGetTableDataV2iPcS_S_S_P6VectorIyE@Base 2.41
 _Z17print_delim_labelP8_IO_FILEP10MetricListc@Base 2.41
 _Z17print_load_objectP8_IO_FILE@Base 2.41
 _Z17split_metric_namePc@Base 2.41
 _Z18dbeCheckConnectionPc@Base 2.41
 _Z18dbeGetCurMetricsV2i10MetricType@Base 2.41
 _Z18dbeGetExpSelectioni@Base 2.41
 _Z18dbeGetExpsPropertyPKc@Base 2.41
 _Z18dbeGetFounderExpIdP6VectorIiE@Base 2.41
 _Z18dbeGetFuncListMiniiii@Base 2.41
 _Z18dbeGetIOStatisticsi@Base 2.41
 _Z18dbeGetInitMessagesv@Base 2.41
 _Z18dbeGetLeakListInfoib@Base 2.41
 _Z18dbeGetMachineModelv@Base 2.41
 _Z18dbeGetMetricListV2i10MetricTypeP6VectorIiES2_PS0_IbES2_PS0_IPcES7_S7_@Base 2.41
 _Z18dbeGetOverviewTexti@Base 2.41
 _Z18dbeGetRefMetricsV2v@Base 2.41
 _Z18dbeGetWallStartSecii@Base 2.41
 _Z18print_html_contentP8_IO_FILEP9Hist_dataP10MetricListiN8Histable10NameFormatE@Base 2.41
 _Z18print_html_trailerP8_IO_FILE@Base 2.41
 _Z19catch_out_of_memoryPFiiPPcEiS0_@Base 2.41
 _Z19dbeGetCallTreeFuncsi@Base 2.41
 _Z19dbeGetCallTreeLeveliPci@Base 2.41
 _Z19dbeGetRefMetricTreeib@Base 2.41
 _Z19dbeLoadMachineModelPc@Base 2.41
 _Z19print_delim_contentP8_IO_FILEP9Hist_dataP10MetricListiN8Histable10NameFormatEc@Base 2.41
 _Z19print_delim_trailerP8_IO_FILEc@Base 2.41
 _Z20dbeCreateDirectoriesPKc@Base 2.41
 _Z20dbeGetCallTreeLevelsiPc@Base 2.41
 _Z20dbeGetExpVerboseNameP6VectorIiE@Base 2.41
 _Z20dbeGetFileAttributesPKcS0_@Base 2.41
 _Z20dbeGetFilterKeywordsi@Base 2.41
 _Z20dbeGetFuncCalleeInfoiiP6VectorIiEi@Base 2.41
 _Z20dbeGetFuncCallerInfoiiP6VectorIiEi@Base 2.41
 _Z20dbeGetHeapStatisticsi@Base 2.41
 _Z20dbeGetLoadObjectListi@Base 2.41
 _Z20dbeGetLoadObjectNamei@Base 2.41
 _Z20dbeGetStackFunctionsix@Base 2.41
 _Z20dbeGetViewModeEnablev@Base 2.41
 _Z20dbeListMachineModelsv@Base 2.41
 _Z21dbeGetAggregatedValueiPcS_S_xxiS_S_@Base 2.41
 _Z21dbeGetLoadObjectStatei@Base 2.41
 _Z21dbeGetPrintModeStringi@Base 2.41
 _Z21dbeGetStacksFunctionsiP6VectorIxE@Base 2.41
 _Z21dbeGetSummaryHotMarksiP6VectorIxEi@Base 2.41
 _Z21dbeOpenExperimentListiP6VectorIPS_IPcEEb@Base 2.41
 _Z21dbeSetLoadObjectStateiP6VectorIiE@Base 2.41
 _Z22dbeComposeFilterClauseiiiP6VectorIiE@Base 2.41
 _Z22dbeGetCallTreeChildreniPcP6VectorIiE@Base 2.41
 _Z22dbeGetComparableObjsV2ixi@Base 2.41
 _Z22dbeGetDataPropertiesV2ii@Base 2.41
 _Z22dbeGetExperimensGroupsv@Base 2.41
 _Z22dbeGetHwcMaxConcurrentib@Base 2.41
 _Z22dbeGetRunningProcessesPKc@Base 2.41
 _Z23dbeGetCallTreeNumLevelsi@Base 2.41
 _Z23dbeGetCustomIndxObjectsi@Base 2.41
 _Z23dbeGetDataDescriptorsV2i@Base 2.41
 _Z23dbeGetDataspaceTypeDescix@Base 2.41
 _Z23dbeGetRelativeStartTimeii@Base 2.41
 _Z23dbeGetTLEventCenterTimeiiiiiixx@Base 2.41
 _Z23dbeGetTabSelectionStatei@Base 2.41
 _Z23dbeResolvedWith_pathmapPKcS0_@Base 2.41
 _Z23dbeResolvedWith_setpathPKc@Base 2.41
 _Z23dbeSetExperimentsGroupsP6VectorIPS_IPcEE@Base 2.41
 _Z23dbeSetTabSelectionStateiP6VectorIbE@Base 2.41
 _Z23get_prof_data_type_namei@Base 2.41
 _Z24dbeGetCPUVerMachineModeli@Base 2.41
 _Z24dbeGetCallTreeLevelFuncsiii@Base 2.41
 _Z24dbeGetExperimentTimeInfoP6VectorIiE@Base 2.41
 _Z24dbeGetFuncCalleeInfoByIdiii@Base 2.41
 _Z24dbeGetFuncCallerInfoByIdiii@Base 2.41
 _Z24dbeGetStatisOverviewListi@Base 2.41
 _Z24dbeGetTLEventIdxNearTimeiiiiiiix@Base 2.41
 _Z24dbeSetLoadObjectDefaultsi@Base 2.41
 _Z24get_prof_data_type_unamei@Base 2.41
 _Z25dbeDetectLoadMachineModeli@Base 2.41
 _Z25dbeGetIndxObjDescriptionsi@Base 2.41
 _Z25dbeGetRefMetricTreeValuesiP6VectorIPcES2_@Base 2.41
 (arch=!x32)_Z25dbeGetSelObjHeapTimestampim@Base 2.41
 (arch=i386 x32)_Z25dbeGetSelObjHeapTimestampiy@Base 2.41
 (arch=!x32)_Z25dbeGetSelObjHeapUserExpIdim@Base 2.41
 (arch=i386 x32)_Z25dbeGetSelObjHeapUserExpIdiy@Base 2.41
 _Z26dbeGetMemTabSelectionStatei@Base 2.41
 _Z26dbeSetMemTabSelectionStateiP6VectorIbE@Base 2.41
 _Z27dbeGetCollectorControlValuePc@Base 2.41
 _Z27dbeGetExpFounderDescendantsv@Base 2.41
 _Z27dbeGetIndxTabSelectionStatei@Base 2.41
 _Z27dbeSetCollectorControlValuePcS_@Base 2.41
 _Z27dbeSetIndxTabSelectionStateiP6VectorIbE@Base 2.41
 _Z27dbeValidateFilterExpressionPc@Base 2.41
 _Z29dbeUnsetCollectorControlValuePc@Base 2.41
 _Z31dbeGetExperimentDataDescriptorsP6VectorIiE@Base 2.41
 (optional=templinst|arch=i386)_Z5qsortIP4ComCEvPT_jPFiPKvS5_S5_EPv@Base 2.41
 (optional=templinst|arch=!x32)_Z5qsortIP4ComCEvPT_mPFiPKvS5_S5_EPv@Base 2.41
 (optional=templinst|arch=i386)_Z5qsortIP5RelocEvPT_jPFiPKvS5_S5_EPv@Base 2.41
 (optional=templinst|arch=!x32)_Z5qsortIP5RelocEvPT_mPFiPKvS5_S5_EPv@Base 2.41
 (optional=templinst|arch=i386)_Z5qsortIP6SegMemEvPT_jPFiPKvS5_S5_EPv@Base 2.41
 (optional=templinst|arch=!x32)_Z5qsortIP6SegMemEvPT_mPFiPKvS5_S5_EPv@Base 2.41
 (optional=templinst|arch=i386)_Z5qsortIP6SymbolEvPT_jPFiPKvS5_S5_EPv@Base 2.41
 (optional=templinst|arch=!x32)_Z5qsortIP6SymbolEvPT_mPFiPKvS5_S5_EPv@Base 2.41
 (optional=templinst|arch=i386)_Z5qsortIP7DwrLineEvPT_jPFiPKvS5_S5_EPv@Base 2.41
 (optional=templinst|arch=!x32)_Z5qsortIP7DwrLineEvPT_mPFiPKvS5_S5_EPv@Base 2.41
 (optional=templinst|arch=i386)_Z5qsortIP8FunctionEvPT_jPFiPKvS5_S5_EPv@Base 2.41
 (optional=templinst|arch=!x32)_Z5qsortIP8FunctionEvPT_mPFiPKvS5_S5_EPv@Base 2.41
 (optional=templinst|arch=i386)_Z5qsortIP8ZipEntryEvPT_jPFiPKvS5_S5_EPv@Base 2.41
 (optional=templinst|arch=!x32)_Z5qsortIP8ZipEntryEvPT_mPFiPKvS5_S5_EPv@Base 2.41
 (optional=templinst|arch=i386)_Z5qsortIP9UserLabelEvPT_jPFiPKvS5_S5_EPv@Base 2.41
 (optional=templinst|arch=!x32)_Z5qsortIP9UserLabelEvPT_mPFiPKvS5_S5_EPv@Base 2.41
 (optional=templinst|arch=i386)_Z5qsortIPN10Experiment14RawFramePacketEEvPT_jPFiPKvS6_S6_EPv@Base 2.41
 (optional=templinst|arch=!x32)_Z5qsortIPN10Experiment14RawFramePacketEEvPT_mPFiPKvS6_S6_EPv@Base 2.41
 (optional=templinst|arch=i386)_Z5qsortIPN10Experiment7UIDnodeEEvPT_jPFiPKvS6_S6_EPv@Base 2.41
 (optional=templinst|arch=!x32)_Z5qsortIPN10Experiment7UIDnodeEEvPT_mPFiPKvS6_S6_EPv@Base 2.41
 (optional=templinst|arch=i386)_Z5qsortIPN11CStack_data11CStack_itemEEvPT_jPFiPKvS6_S6_EPv@Base 2.41
 (optional=templinst|arch=!x32)_Z5qsortIPN11CStack_data11CStack_itemEEvPT_mPFiPKvS6_S6_EPv@Base 2.41
 (optional=templinst|arch=i386)_Z5qsortIPN8ElfReloc6SrelocEEvPT_jPFiPKvS6_S6_EPv@Base 2.41
 (optional=templinst|arch=!x32)_Z5qsortIPN8ElfReloc6SrelocEEvPT_mPFiPKvS6_S6_EPv@Base 2.41
 (optional=templinst|arch=i386)_Z5qsortIPN9Hist_data8HistItemEEvPT_jPFiPKvS6_S6_EPv@Base 2.41
 (optional=templinst|arch=!x32)_Z5qsortIPN9Hist_data8HistItemEEvPT_mPFiPKvS6_S6_EPv@Base 2.41
 (optional=templinst|arch=i386)_Z5qsortIPcEvPT_jPFiPKvS4_S4_EPv@Base 2.41
 (optional=templinst|arch=!x32)_Z5qsortIPcEvPT_mPFiPKvS4_S4_EPv@Base 2.41
 (optional=templinst|arch=i386)_Z5qsortIlEvPT_jPFiPKvS3_S3_EPv@Base 2.41
 (optional=templinst|arch=!x32)_Z5qsortIlEvPT_mPFiPKvS3_S3_EPv@Base 2.41
 (optional=templinst|arch=i386)_Z5qsortIxEvPT_jPFiPKvS3_S3_EPv@Base 2.41
 (optional=templinst|arch=!x32)_Z5qsortIxEvPT_mPFiPKvS3_S3_EPv@Base 2.41
 _Z7destroyPv@Base 2.41
 _Z8getStack5VModeP8DataViewl@Base 2.41
 _Z8pr_mesgsP4EmsgPKcS2_@Base 2.41
 _Z9dbeGetMsgii@Base 2.41
 _Z9split_strPcc@Base 2.41
 _Z9stackSize5VModeP8DataViewl@Base 2.41
 _ZN10BaseMetric11is_internalEv@Base 2.41
 _ZN10BaseMetric12set_val_specEPc@Base 2.41
 _ZN10BaseMetric13set_cond_specEPc@Base 2.41
 _ZN10BaseMetric13set_expr_specEPc@Base 2.41
 _ZN10BaseMetric14specify_metricEPcS0_@Base 2.41
 _ZN10BaseMetric17get_basetype_nameEv@Base 2.41
 _ZN10BaseMetric18get_comparable_objEP8Histable@Base 2.41
 _ZN10BaseMetric19get_default_visbitsENS_7SubTypeE@Base 2.41
 _ZN10BaseMetric19set_default_visbitsENS_7SubTypeEi@Base 2.41
 _ZN10BaseMetric19specify_prof_metricEPc@Base 2.41
 _ZN10BaseMetric21specify_mstate_metricEi@Base 2.41
 _ZN10BaseMetric23specify_ompstate_metricEi@Base 2.41
 _ZN10BaseMetric4dumpEv@Base 2.41
 _ZN10BaseMetric4initENS_4TypeE@Base 2.41
 _ZN10BaseMetric7last_idE@Base 2.41
 _ZN10BaseMetric7specifyEv@Base 2.41
 _ZN10BaseMetric8hwc_initEP8HwcentryPKcS3_S3_i@Base 2.41
 _ZN10BaseMetricC1ENS_4TypeE@Base 2.41
 _ZN10BaseMetricC1EP8HwcentryPKcS3_S3_i@Base 2.41
 _ZN10BaseMetricC1EP8HwcentryPKcS3_iPS_@Base 2.41
 _ZN10BaseMetricC1EPKcS1_P10Definition@Base 2.41
 _ZN10BaseMetricC1ERKS_@Base 2.41
 _ZN10BaseMetricC2ENS_4TypeE@Base 2.41
 _ZN10BaseMetricC2EP8HwcentryPKcS3_S3_i@Base 2.41
 _ZN10BaseMetricC2EP8HwcentryPKcS3_iPS_@Base 2.41
 _ZN10BaseMetricC2EPKcS1_P10Definition@Base 2.41
 _ZN10BaseMetricC2ERKS_@Base 2.41
 _ZN10BaseMetricD0Ev@Base 2.41
 _ZN10BaseMetricD1Ev@Base 2.41
 _ZN10BaseMetricD2Ev@Base 2.41
 _ZN10CallStackP11add_stack_dEP6VectorIP8HistableE@Base 2.41
 _ZN10CallStackP11adjustEventEP8DbeInstrS1_Ryi@Base 2.41
 _ZN10CallStackP14add_stack_javaEP14DataDescriptorlP11FramePacketxjP6VectorIP8DbeInstrEbP14cstk_ctx_chunk@Base 2.41
 (arch=!x32)_ZN10CallStackP15find_preg_stackEm@Base 2.41
 (arch=i386 x32)_ZN10CallStackP15find_preg_stackEy@Base 2.41
 _ZN10CallStackP23add_stack_java_epilogueEP14DataDescriptorlP11FramePacketxjP6VectorIP8DbeInstrEPS4_IP8HistableEb@Base 2.41
 _ZN10CallStackP5printEP8_IO_FILE@Base 2.41
 _ZN10CallStackP8get_nodeEi@Base 2.41
 _ZN10CallStackP8new_NodeEP13CallStackNodeP8Histable@Base 2.41
 _ZN10CallStackP9add_stackEP14DataDescriptorlP11FramePacketP14cstk_ctx_chunk@Base 2.41
 _ZN10CallStackP9add_stackEP6VectorIP8HistableE@Base 2.41
 _ZN10CallStackPC1EP10Experiment@Base 2.41
 _ZN10CallStackPC2EP10Experiment@Base 2.41
 _ZN10CallStackPD0Ev@Base 2.41
 _ZN10CallStackPD1Ev@Base 2.41
 _ZN10CallStackPD2Ev@Base 2.41
 (arch=!x32)_ZN10DataDOUBLE10fetchULongEl@Base 2.41
 (arch=!x32)_ZN10DataDOUBLE11fetchDoubleEl@Base 2.41
 (arch=!x32)_ZN10DataDOUBLE11fetchObjectEl@Base 2.41
 (arch=!x32)_ZN10DataDOUBLE11fetchStringEl@Base 2.41
 (arch=!x32)_ZN10DataDOUBLE11setObjValueElPv@Base 2.41
 (arch=!x32)_ZN10DataDOUBLE13cmpDatumValueElPK5Datum@Base 2.41
 (arch=!x32)_ZN10DataDOUBLE13setDatumValueElPK5Datum@Base 2.41
 (arch=!x32)_ZN10DataDOUBLE4typeEv@Base 2.41
 (arch=!x32)_ZN10DataDOUBLE5resetEv@Base 2.41
 (arch=!x32)_ZN10DataDOUBLE7getSizeEv@Base 2.41
 (arch=!x32)_ZN10DataDOUBLE8fetchIntEl@Base 2.41
 (arch=!x32)_ZN10DataDOUBLE8setValueElm@Base 2.41
 (arch=i386)_ZN10DataDOUBLE8setValueEly@Base 2.41
 (arch=!x32)_ZN10DataDOUBLE9cmpValuesEll@Base 2.41
 (arch=!x32)_ZN10DataDOUBLE9fetchLongEl@Base 2.41
 (arch=!x32)_ZN10DataDOUBLED0Ev@Base 2.41
 (arch=!x32)_ZN10DataDOUBLED1Ev@Base 2.41
 (arch=!x32)_ZN10DataDOUBLED2Ev@Base 2.41
 (arch=!x32)_ZN10DataOBJECT10fetchULongEl@Base 2.41
 (arch=!x32)_ZN10DataOBJECT11fetchDoubleEl@Base 2.41
 (arch=!x32)_ZN10DataOBJECT11fetchObjectEl@Base 2.41
 (arch=!x32)_ZN10DataOBJECT11fetchStringEl@Base 2.41
 (arch=!x32)_ZN10DataOBJECT11setObjValueElPv@Base 2.41
 (arch=!x32)_ZN10DataOBJECT13cmpDatumValueElPK5Datum@Base 2.41
 (arch=!x32)_ZN10DataOBJECT13setDatumValueElPK5Datum@Base 2.41
 (arch=!x32)_ZN10DataOBJECT4typeEv@Base 2.41
 (arch=!x32)_ZN10DataOBJECT5resetEv@Base 2.41
 (arch=!x32)_ZN10DataOBJECT7getSizeEv@Base 2.41
 (arch=!x32)_ZN10DataOBJECT8fetchIntEl@Base 2.41
 (arch=!x32)_ZN10DataOBJECT8setValueElm@Base 2.41
 (arch=i386)_ZN10DataOBJECT8setValueEly@Base 2.41
 (arch=!x32)_ZN10DataOBJECT9cmpValuesEll@Base 2.41
 (arch=!x32)_ZN10DataOBJECT9fetchLongEl@Base 2.41
 (arch=!x32)_ZN10DataOBJECTD0Ev@Base 2.41
 (arch=!x32)_ZN10DataOBJECTD1Ev@Base 2.41
 (arch=!x32)_ZN10DataOBJECTD2Ev@Base 2.41
 _ZN10DataObject10find_dbeEAEy@Base 2.41
 _ZN10DataObject12set_dobjnameEPcS0_@Base 2.41
 _ZN10DataObject15get_offset_markEv@Base 2.41
 _ZN10DataObject15get_offset_nameEv@Base 2.41
 _ZN10DataObject8get_addrEv@Base 2.41
 (arch=!x32)_ZN10DataObject8get_sizeEv@Base 2.41
 (arch=!x32)_ZN10DataObject8get_typeEv@Base 2.41
 _ZN10DataObject8set_nameEPc@Base 2.41
 _ZN10DataObject9converttoEN8Histable4TypeEPS0_@Base 2.41
 _ZN10DataObjectC1Ev@Base 2.41
 _ZN10DataObjectC2Ev@Base 2.41
 _ZN10DataObjectD0Ev@Base 2.41
 _ZN10DataObjectD1Ev@Base 2.41
 _ZN10DataObjectD2Ev@Base 2.41
 (arch=!x32)_ZN10DataSTRING10fetchULongEl@Base 2.41
 (arch=!x32)_ZN10DataSTRING11fetchDoubleEl@Base 2.41
 (arch=!x32)_ZN10DataSTRING11fetchObjectEl@Base 2.41
 (arch=!x32)_ZN10DataSTRING11fetchStringEl@Base 2.41
 (arch=!x32)_ZN10DataSTRING11setObjValueElPv@Base 2.41
 (arch=!x32)_ZN10DataSTRING13cmpDatumValueElPK5Datum@Base 2.41
 (arch=!x32)_ZN10DataSTRING13setDatumValueElPK5Datum@Base 2.41
 (arch=!x32)_ZN10DataSTRING4typeEv@Base 2.41
 (arch=!x32)_ZN10DataSTRING5resetEv@Base 2.41
 (arch=!x32)_ZN10DataSTRING7getSizeEv@Base 2.41
 (arch=!x32)_ZN10DataSTRING8fetchIntEl@Base 2.41
 (arch=!x32)_ZN10DataSTRING8setValueElm@Base 2.41
 (arch=i386)_ZN10DataSTRING8setValueEly@Base 2.41
 (arch=!x32)_ZN10DataSTRING9cmpValuesEll@Base 2.41
 (arch=!x32)_ZN10DataSTRING9fetchLongEl@Base 2.41
 (arch=!x32)_ZN10DataSTRINGD0Ev@Base 2.41
 (arch=!x32)_ZN10DataSTRINGD1Ev@Base 2.41
 (arch=!x32)_ZN10DataSTRINGD2Ev@Base 2.41
 (arch=!x32)_ZN10DataStream4readEPvl@Base 2.41
 (arch=i386 x32)_ZN10DataStream4readEPvx@Base 2.41
 (arch=!x32)_ZN10DataStream8set_spanEll@Base 2.41
 (arch=i386 x32)_ZN10DataStream8set_spanExx@Base 2.41
 _ZN10DataStreamC1EPc@Base 2.41
 _ZN10DataStreamC2EPc@Base 2.41
 _ZN10DataStreamD1Ev@Base 2.41
 _ZN10DataStreamD2Ev@Base 2.41
 (arch=!x32)_ZN10DataUINT3210fetchULongEl@Base 2.41
 (arch=!x32)_ZN10DataUINT3211fetchDoubleEl@Base 2.41
 (arch=!x32)_ZN10DataUINT3211fetchObjectEl@Base 2.41
 (arch=!x32)_ZN10DataUINT3211fetchStringEl@Base 2.41
 (arch=!x32)_ZN10DataUINT3211setObjValueElPv@Base 2.41
 (arch=!x32)_ZN10DataUINT3213cmpDatumValueElPK5Datum@Base 2.41
 (arch=!x32)_ZN10DataUINT3213setDatumValueElPK5Datum@Base 2.41
 (arch=!x32)_ZN10DataUINT324typeEv@Base 2.41
 (arch=!x32)_ZN10DataUINT325resetEv@Base 2.41
 (arch=!x32)_ZN10DataUINT327getSizeEv@Base 2.41
 (arch=!x32)_ZN10DataUINT328fetchIntEl@Base 2.41
 (arch=!x32)_ZN10DataUINT328setValueElm@Base 2.41
 (arch=i386)_ZN10DataUINT328setValueEly@Base 2.41
 (arch=!x32)_ZN10DataUINT329cmpValuesEll@Base 2.41
 (arch=!x32)_ZN10DataUINT329fetchLongEl@Base 2.41
 (arch=!x32)_ZN10DataUINT32D0Ev@Base 2.41
 (arch=!x32)_ZN10DataUINT32D1Ev@Base 2.41
 (arch=!x32)_ZN10DataUINT32D2Ev@Base 2.41
 (arch=!x32)_ZN10DataUINT6410fetchULongEl@Base 2.41
 (arch=!x32)_ZN10DataUINT6411fetchDoubleEl@Base 2.41
 (arch=!x32)_ZN10DataUINT6411fetchObjectEl@Base 2.41
 (arch=!x32)_ZN10DataUINT6411fetchStringEl@Base 2.41
 (arch=!x32)_ZN10DataUINT6411setObjValueElPv@Base 2.41
 (arch=!x32)_ZN10DataUINT6413cmpDatumValueElPK5Datum@Base 2.41
 (arch=!x32)_ZN10DataUINT6413setDatumValueElPK5Datum@Base 2.41
 (arch=!x32)_ZN10DataUINT644typeEv@Base 2.41
 (arch=!x32)_ZN10DataUINT645resetEv@Base 2.41
 (arch=!x32)_ZN10DataUINT647getSizeEv@Base 2.41
 (arch=!x32)_ZN10DataUINT648fetchIntEl@Base 2.41
 (arch=!x32)_ZN10DataUINT648setValueElm@Base 2.41
 (arch=i386)_ZN10DataUINT648setValueEly@Base 2.41
 (arch=!x32)_ZN10DataUINT649cmpValuesEll@Base 2.41
 (arch=!x32)_ZN10DataUINT649fetchLongEl@Base 2.41
 (arch=!x32)_ZN10DataUINT64D0Ev@Base 2.41
 (arch=!x32)_ZN10DataUINT64D1Ev@Base 2.41
 (arch=!x32)_ZN10DataUINT64D2Ev@Base 2.41
 _ZN10DbeJarFile11get_entriesEv@Base 2.41
 _ZN10DbeJarFile14get_EndCentDirEP10EndCentDir@Base 2.41
 _ZN10DbeJarFile4copyEPci@Base 2.41
 _ZN10DbeJarFile9get_entryEPKc@Base 2.41
 _ZN10DbeJarFileC1EPKc@Base 2.41
 _ZN10DbeJarFileC2EPKc@Base 2.41
 _ZN10DbeJarFileD1Ev@Base 2.41
 _ZN10DbeJarFileD2Ev@Base 2.41
 _ZN10DbeSession10createViewEii@Base 2.41
 _ZN10DbeSession10getDbeFileEPci@Base 2.41
 _ZN10DbeSession10reset_dataEv@Base 2.41
 _ZN10DbeSession11drop_metricEP10BaseMetric@Base 2.41
 _ZN10DbeSession11dump_stacksEP8_IO_FILE@Base 2.41
 _ZN10DbeSession11find_metricEN10BaseMetric4TypeEPKcS3_@Base 2.41
 _ZN10DbeSession11getPropNameEi@Base 2.41
 _ZN10DbeSession11get_JarFileEPKc@Base 2.41
 _ZN10DbeSession11get_sourcesEv@Base 2.41
 _ZN10DbeSession11match_FNameEPcP8Function@Base 2.41
 _ZN10DbeSession11mobj_defineEP12MemObjType_t@Base 2.41
 _ZN10DbeSession12append_mesgsEP13StringBuilderPcP10Experiment@Base 2.41
 _ZN10DbeSession12createModuleEP10LoadObjectPKc@Base 2.41
 _ZN10DbeSession12getPropUNameEi@Base 2.41
 _ZN10DbeSession12get_pathmapsEv@Base 2.41
 _ZN10DbeSession12has_ompavailEv@Base 2.41
 _ZN10DbeSession12set_pathmapsEP6VectorIP9pathmap_tE@Base 2.41
 _ZN10DbeSession13add_classpathEPc@Base 2.41
 _ZN10DbeSession13createJMethodEv@Base 2.41
 _ZN10DbeSession13dobj_updateHTEP10DataObject@Base 2.41
 _ZN10DbeSession13dump_segmentsEP8_IO_FILE@Base 2.41
 _ZN10DbeSession13findUserLabelEPKc@Base 2.41
 _ZN10DbeSession13getIndexSpaceEi@Base 2.41
 _ZN10DbeSession13get_classpathEv@Base 2.41
 _ZN10DbeSession13insert_metricEP10BaseMetricP6VectorIS1_E@Base 2.41
 _ZN10DbeSession14createFunctionEv@Base 2.41
 _ZN10DbeSession14findIndexSpaceEPKc@Base 2.41
 (arch=!x32)_ZN10DbeSession14findObjectByIdEN8Histable4TypeEim@Base 2.41
 (arch=i386 x32)_ZN10DbeSession14findObjectByIdEN8Histable4TypeEiy@Base 2.41
 _ZN10DbeSession14indxobj_defineEPKcPcS1_S2_S2_@Base 2.41
 _ZN10DbeSession15check_tab_availEv@Base 2.41
 _ZN10DbeSession15createClassFileEPc@Base 2.41
 _ZN10DbeSession15drop_experimentEi@Base 2.41
 (arch=!x32)_ZN10DbeSession15findIndexObjectEim@Base 2.41
 (arch=i386 x32)_ZN10DbeSession15findIndexObjectEiy@Base 2.41
 _ZN10DbeSession15find_dobj_matchEP10DataObject@Base 2.41
 _ZN10DbeSession15find_experimentEPc@Base 2.41
 _ZN10DbeSession15find_mach_modelEPc@Base 2.41
 _ZN10DbeSession15getPropIdByNameEPKc@Base 2.41
 _ZN10DbeSession15load_mach_modelEPc@Base 2.41
 _ZN10DbeSession15open_experimentEP10ExperimentPc@Base 2.41
 _ZN10DbeSession15register_metricEN10BaseMetric4TypeE@Base 2.41
 _ZN10DbeSession15register_metricEP8HwcentryPKcS3_@Base 2.41
 _ZN10DbeSession15register_metricEPcS0_S0_@Base 2.41
 _ZN10DbeSession15set_need_refindEv@Base 2.41
 _ZN10DbeSession15set_search_pathEP6VectorIPcEb@Base 2.41
 _ZN10DbeSession15set_search_pathEPcb@Base 2.41
 _ZN10DbeSession16createDataObjectEP10DataObjectS1_@Base 2.41
 _ZN10DbeSession16createDataObjectEv@Base 2.41
 _ZN10DbeSession16createExperimentEv@Base 2.41
 _ZN10DbeSession16createHistObjectEN8Histable4TypeE@Base 2.41
 _ZN10DbeSession16createLoadObjectEPKcS1_P7DbeFile@Base 2.41
 (arch=!x32)_ZN10DbeSession16createLoadObjectEPKcl@Base 2.41
 (arch=i386 x32)_ZN10DbeSession16createLoadObjectEPKcx@Base 2.41
 _ZN10DbeSession16createSourceFileEPKc@Base 2.41
 _ZN10DbeSession16dump_dataobjectsEP8_IO_FILE@Base 2.41
 _ZN10DbeSession16findObjDefByNameEPKc@Base 2.41
 _ZN10DbeSession16find_dobj_masterEP10DataObject@Base 2.41
 _ZN10DbeSession16get_OMP_FunctionEi@Base 2.41
 _ZN10DbeSession16get_jvm_FunctionEv@Base 2.41
 _ZN10DbeSession16is_omp_availableEv@Base 2.41
 _ZN10DbeSession16list_mach_modelsEv@Base 2.41
 _ZN10DbeSession16map_NametoModuleEPcP6VectorIP8HistableEi@Base 2.41
 _ZN10DbeSession16match_dobj_namesEPc@Base 2.41
 _ZN10DbeSession16match_file_namesEPcN8Histable10NameFormatE@Base 2.41
 _ZN10DbeSession16match_func_namesEPKcN8Histable10NameFormatE@Base 2.41
 _ZN10DbeSession16unlink_tmp_filesEv@Base 2.41
 _ZN10DbeSession17createIndexObjectEiP8Histable@Base 2.41
 (arch=!x32)_ZN10DbeSession17createIndexObjectEil@Base 2.41
 (arch=i386 x32)_ZN10DbeSession17createIndexObjectEix@Base 2.41
 _ZN10DbeSession17find_dobj_by_nameEPc@Base 2.41
 (arch=!x32)_ZN10DbeSession17find_lobj_by_nameEPKcl@Base 2.41
 (arch=i386 x32)_ZN10DbeSession17find_lobj_by_nameEPKcx@Base 2.41
 _ZN10DbeSession17getIndexSpaceExprEi@Base 2.41
 _ZN10DbeSession17getIndexSpaceNameEi@Base 2.41
 _ZN10DbeSession17get_dobj_elementsEP10DataObject@Base 2.41
 _ZN10DbeSession17get_group_or_exptEPc@Base 2.41
 _ZN10DbeSession17get_text_segmentsEv@Base 2.41
 _ZN10DbeSession17get_tmp_file_nameEPKcb@Base 2.41
 _ZN10DbeSession18getIndexSpaceDescrEi@Base 2.41
 _ZN10DbeSession18getSpecialFunctionENS_15SpecialFunctionE@Base 2.41
 _ZN10DbeSession18get_OMP_LoadObjectEv@Base 2.41
 _ZN10DbeSession18get_Total_FunctionEv@Base 2.41
 _ZN10DbeSession18get_Unknown_SourceEv@Base 2.41
 _ZN10DbeSession18is_ifreq_availableEv@Base 2.41
 _ZN10DbeSession18map_NametoFunctionEPcP6VectorIP8HistableEPKc@Base 2.41
 (arch=!x32)_ZN10DbeSession18match_java_threadsEPciRP6VectorImES4_@Base 2.41
 (arch=i386 x32)_ZN10DbeSession18match_java_threadsEPciRP6VectorIyES4_@Base 2.41
 _ZN10DbeSession18update_metric_treeEP10BaseMetric@Base 2.41
 _ZN10DbeSession19createUnknownModuleEP10LoadObject@Base 2.41
 _ZN10DbeSession19getExperimensGroupsEv@Base 2.41
 _ZN10DbeSession19get_filter_keywordsEP6VectorIPvE@Base 2.41
 _ZN10DbeSession19is_iodata_availableEv@Base 2.41
 _ZN10DbeSession20create_hide_functionEP10LoadObject@Base 2.41
 _ZN10DbeSession20findIndexSpaceByNameEPKc@Base 2.41
 _ZN10DbeSession20find_base_reg_metricEPc@Base 2.41
 _ZN10DbeSession20getCustomIndxObjectsEv@Base 2.41
 _ZN10DbeSession20getIndexSpaceExprStrEi@Base 2.41
 _ZN10DbeSession20get_Total_LoadObjectEv@Base 2.41
 _ZN10DbeSession20get_Unknown_FunctionEv@Base 2.41
 _ZN10DbeSession20get_base_reg_metricsEv@Base 2.41
 _ZN10DbeSession20get_reg_metrics_treeEv@Base 2.41
 _ZN10DbeSession20map_NametoDataObjectEPcP6VectorIP8HistableEi@Base 2.41
 _ZN10DbeSession20map_NametoLoadObjectEPcP6VectorIP8HistableEi@Base 2.41
 _ZN10DbeSession20propNames_name_fetchEi@Base 2.41
 _ZN10DbeSession20propNames_name_storeEiPKc@Base 2.41
 _ZN10DbeSession20propNames_name_storeEiPKcS1_10VType_typei@Base 2.41
 _ZN10DbeSession20registerPropertyNameEPKc@Base 2.41
 _ZN10DbeSession20register_metric_exprEN10BaseMetric4TypeEPcS2_@Base 2.41
 _ZN10DbeSession20setExperimentsGroupsEP6VectorIPS0_IPcEE@Base 2.41
 _ZN10DbeSession21createExperimentPart1Ev@Base 2.41
 _ZN10DbeSession21createExperimentPart2EP10Experiment@Base 2.41
 _ZN10DbeSession21get_JUnknown_FunctionEv@Base 2.41
 _ZN10DbeSession21is_datamode_availableEv@Base 2.41
 _ZN10DbeSession21is_heapdata_availableEv@Base 2.41
 _ZN10DbeSession21is_leaklist_availableEv@Base 2.41
 _ZN10DbeSession21is_racelist_availableEv@Base 2.41
 _ZN10DbeSession21is_timeline_availableEv@Base 2.41
 _ZN10DbeSession22createMasterDataObjectEP10DataObject@Base 2.41
 _ZN10DbeSession22getIndxObjDescriptionsEv@Base 2.41
 _ZN10DbeSession22get_Unknown_LoadObjectEv@Base 2.41
 _ZN10DbeSession22removeIndexSpaceByNameEPKc@Base 2.41
 _ZN10DbeSession25is_deadlocklist_availableEv@Base 2.41
 _ZN10DbeSession4dumpEPcP6VectorIP10BaseMetricE@Base 2.41
 _ZN10DbeSession4dumpEPcP6VectorIP6MetricE@Base 2.41
 _ZN10DbeSession4initEv@Base 2.41
 _ZN10DbeSession5resetEv@Base 2.41
 _ZN10DbeSession6appendEP10Experiment@Base 2.41
 _ZN10DbeSession6appendEP10LoadObject@Base 2.41
 _ZN10DbeSession6appendEP10SourceFile@Base 2.41
 _ZN10DbeSession6appendEP8Hwcentry@Base 2.41
 _ZN10DbeSession6appendEP9UserLabel@Base 2.41
 _ZN10DbeSession7getViewEi@Base 2.41
 _ZN10DbeSession7get_expEi@Base 2.41
 _ZN10DbeSession8add_pathEPc@Base 2.41
 _ZN10DbeSession8add_pathEPcP6VectorIS0_E@Base 2.41
 _ZN10DbeSession8dropViewEi@Base 2.41
 _ZN10DbeSession8dump_mapEP8_IO_FILE@Base 2.41
 _ZN10DbeSession8find_objEP8_IO_FILES1_RP8HistablePcPKcNS2_4TypeEb@Base 2.41
 _ZN10DbeSession8has_javaEv@Base 2.41
 _ZN10DbeSession8platformE@Base 2.41
 _ZN10DbeSession8ql_parseEPKc@Base 2.41
 _ZN10DbeSession9ask_whichEP8_IO_FILES1_P6VectorIP8HistableEPc@Base 2.41
 _ZN10DbeSession9get_clockEi@Base 2.41
 _ZN10DbeSession9ngoodexpsEv@Base 2.41
 _ZN10DbeSessionC1EP8Settingsbb@Base 2.41
 _ZN10DbeSessionC2EP8Settingsbb@Base 2.41
 _ZN10DbeSessionD1Ev@Base 2.41
 _ZN10DbeSessionD2Ev@Base 2.41
 (optional=templinst|arch=!x32)_ZN10DbeSyncMapI10LoadObjectE16sync_create_itemEPKcS3_P7DbeFile@Base 2.41
 (optional=templinst|arch=!x32)_ZN10DbeSyncMapI10LoadObjectE16sync_create_itemEPKcl@Base 2.41
 (optional=templinst|arch=i386)_ZN10DbeSyncMapI10LoadObjectE16sync_create_itemEPKcx@Base 2.41
 (optional=templinst|arch=!x32)_ZN10DbeSyncMapI10LoadObjectE4dumpEv@Base 2.41
 (optional=templinst|arch=!arm64 !x32)_ZN10DbeSyncMapI10LoadObjectE5resetEv@Base 2.41
 (optional=templinst|arch=!x32)_ZN10DbeSyncMapI10LoadObjectED0Ev@Base 2.41
 (optional=templinst|arch=!x32)_ZN10DbeSyncMapI10LoadObjectED1Ev@Base 2.41
 (optional=templinst|arch=!x32)_ZN10DbeSyncMapI10LoadObjectED2Ev@Base 2.41
 (optional=templinst|arch=!x32)_ZN10DefaultMapIP10LoadObjectiE3getES1_@Base 2.41
 (optional=templinst|arch=!x32)_ZN10DefaultMapIP10LoadObjectiE3getES1_N3MapIS1_iE8RelationE@Base 2.41
 (optional=templinst|arch=!x32)_ZN10DefaultMapIP10LoadObjectiE3putES1_i@Base 2.41
 (optional=templinst|arch=!x32)_ZN10DefaultMapIP10LoadObjectiE6keySetEv@Base 2.41
 (optional=templinst|arch=!x32)_ZN10DefaultMapIP10LoadObjectiE6removeES1_@Base 2.41
 (optional=templinst|arch=!x32)_ZN10DefaultMapIP10LoadObjectiE6valuesEv@Base 2.41
 (optional=templinst|arch=!x32)_ZN10DefaultMapIP10LoadObjectiED0Ev@Base 2.41
 (optional=templinst|arch=!x32)_ZN10DefaultMapIP10LoadObjectiED1Ev@Base 2.41
 (optional=templinst|arch=!x32)_ZN10DefaultMapIP10LoadObjectiED2Ev@Base 2.41
 (optional=templinst|arch=!x32)_ZN10DefaultMapIP8FunctionS1_E3getES1_@Base 2.41
 (optional=templinst|arch=!x32)_ZN10DefaultMapIP8FunctionS1_E3getES1_N3MapIS1_S1_E8RelationE@Base 2.41
 (optional=templinst|arch=!x32)_ZN10DefaultMapIP8FunctionS1_E3putES1_S1_@Base 2.41
 (optional=templinst|arch=!x32)_ZN10DefaultMapIP8FunctionS1_E6keySetEv@Base 2.41
 (optional=templinst|arch=!x32)_ZN10DefaultMapIP8FunctionS1_E6removeES1_@Base 2.41
 (optional=templinst|arch=!x32)_ZN10DefaultMapIP8FunctionS1_E6valuesEv@Base 2.41
 (optional=templinst|arch=!x32)_ZN10DefaultMapIP8FunctionS1_ED0Ev@Base 2.41
 (optional=templinst|arch=!x32)_ZN10DefaultMapIP8FunctionS1_ED1Ev@Base 2.41
 (optional=templinst|arch=!x32)_ZN10DefaultMapIP8FunctionS1_ED2Ev@Base 2.41
 (optional=templinst|arch=!x32)_ZN10DefaultMapIP8FunctioniE3getES1_@Base 2.41
 (optional=templinst|arch=!x32)_ZN10DefaultMapIP8FunctioniE3getES1_N3MapIS1_iE8RelationE@Base 2.41
 (optional=templinst|arch=!x32)_ZN10DefaultMapIP8FunctioniE3putES1_i@Base 2.41
 (optional=templinst|arch=!x32)_ZN10DefaultMapIP8FunctioniE6keySetEv@Base 2.41
 (optional=templinst|arch=!x32)_ZN10DefaultMapIP8FunctioniE6removeES1_@Base 2.41
 (optional=templinst|arch=!x32)_ZN10DefaultMapIP8FunctioniE6valuesEv@Base 2.41
 (optional=templinst|arch=!x32)_ZN10DefaultMapIP8FunctioniED0Ev@Base 2.41
 (optional=templinst|arch=!x32)_ZN10DefaultMapIP8FunctioniED1Ev@Base 2.41
 (optional=templinst|arch=!x32)_ZN10DefaultMapIP8FunctioniED2Ev@Base 2.41
 (optional=templinst|arch=!x32)_ZN10DefaultMapIP8FunctionlE3getES1_@Base 2.41
 (optional=templinst|arch=!x32)_ZN10DefaultMapIP8FunctionlE3getES1_N3MapIS1_lE8RelationE@Base 2.41
 (optional=templinst|arch=!x32)_ZN10DefaultMapIP8FunctionlE3putES1_l@Base 2.41
 (optional=templinst|arch=!x32)_ZN10DefaultMapIP8FunctionlE6keySetEv@Base 2.41
 (optional=templinst|arch=!x32)_ZN10DefaultMapIP8FunctionlE6removeES1_@Base 2.41
 (optional=templinst|arch=!x32)_ZN10DefaultMapIP8FunctionlE6valuesEv@Base 2.41
 (optional=templinst|arch=!x32)_ZN10DefaultMapIP8FunctionlED0Ev@Base 2.41
 (optional=templinst|arch=!x32)_ZN10DefaultMapIP8FunctionlED1Ev@Base 2.41
 (optional=templinst|arch=!x32)_ZN10DefaultMapIP8FunctionlED2Ev@Base 2.41
 (optional=templinst|arch=!x32)_ZN10DefaultMapIP8HistableiE3getES1_@Base 2.41
 (optional=templinst|arch=!x32)_ZN10DefaultMapIP8HistableiE3getES1_N3MapIS1_iE8RelationE@Base 2.41
 (optional=templinst|arch=!x32)_ZN10DefaultMapIP8HistableiE3putES1_i@Base 2.41
 (optional=templinst|arch=!x32)_ZN10DefaultMapIP8HistableiE6keySetEv@Base 2.41
 (optional=templinst|arch=!x32)_ZN10DefaultMapIP8HistableiE6removeES1_@Base 2.41
 (optional=templinst|arch=!x32)_ZN10DefaultMapIP8HistableiE6valuesEv@Base 2.41
 (optional=templinst|arch=!x32)_ZN10DefaultMapIP8HistableiED0Ev@Base 2.41
 (optional=templinst|arch=!x32)_ZN10DefaultMapIP8HistableiED1Ev@Base 2.41
 (optional=templinst|arch=!x32)_ZN10DefaultMapIP8HistableiED2Ev@Base 2.41
 (optional=templinst|arch=!x32)_ZN10DefaultMapIPvP8FileDataE3getES0_@Base 2.41
 (optional=templinst|arch=!x32)_ZN10DefaultMapIPvP8FileDataE3getES0_N3MapIS0_S2_E8RelationE@Base 2.41
 (optional=templinst|arch=!x32)_ZN10DefaultMapIPvP8FileDataE3putES0_S2_@Base 2.41
 (optional=templinst|arch=!x32)_ZN10DefaultMapIPvP8FileDataE6keySetEv@Base 2.41
 (optional=templinst|arch=!x32)_ZN10DefaultMapIPvP8FileDataE6removeES0_@Base 2.41
 (optional=templinst|arch=!x32)_ZN10DefaultMapIPvP8FileDataE6valuesEv@Base 2.41
 (optional=templinst|arch=!x32)_ZN10DefaultMapIPvP8FileDataED0Ev@Base 2.41
 (optional=templinst|arch=!x32)_ZN10DefaultMapIPvP8FileDataED1Ev@Base 2.41
 (optional=templinst|arch=!x32)_ZN10DefaultMapIPvP8FileDataED2Ev@Base 2.41
 (optional=templinst|arch=!x32)_ZN10DefaultMapIiP7DbeLineE3getEi@Base 2.41
 (optional=templinst|arch=!x32)_ZN10DefaultMapIiP7DbeLineE3getEiN3MapIiS1_E8RelationE@Base 2.41
 (optional=templinst|arch=!x32)_ZN10DefaultMapIiP7DbeLineE3putEiS1_@Base 2.41
 (optional=templinst|arch=!x32)_ZN10DefaultMapIiP7DbeLineE6keySetEv@Base 2.41
 (optional=templinst|arch=!x32)_ZN10DefaultMapIiP7DbeLineE6removeEi@Base 2.41
 (optional=templinst|arch=!x32)_ZN10DefaultMapIiP7DbeLineE6valuesEv@Base 2.41
 (optional=templinst|arch=!x32)_ZN10DefaultMapIiP7DbeLineED0Ev@Base 2.41
 (optional=templinst|arch=!x32)_ZN10DefaultMapIiP7DbeLineED1Ev@Base 2.41
 (optional=templinst|arch=!x32)_ZN10DefaultMapIiP7DbeLineED2Ev@Base 2.41
 (optional=templinst|arch=!x32)_ZN10DefaultMapIilE3getEi@Base 2.41
 (optional=templinst|arch=!x32)_ZN10DefaultMapIilE3getEiN3MapIilE8RelationE@Base 2.41
 (optional=templinst|arch=!x32)_ZN10DefaultMapIilE3putEil@Base 2.41
 (optional=templinst|arch=!x32)_ZN10DefaultMapIilE6keySetEv@Base 2.41
 (optional=templinst|arch=!x32)_ZN10DefaultMapIilE6removeEi@Base 2.41
 (optional=templinst|arch=!x32)_ZN10DefaultMapIilE6valuesEv@Base 2.41
 (optional=templinst|arch=!x32)_ZN10DefaultMapIilED0Ev@Base 2.41
 (optional=templinst|arch=!x32)_ZN10DefaultMapIilED1Ev@Base 2.41
 (optional=templinst|arch=!x32)_ZN10DefaultMapIilED2Ev@Base 2.41
 (optional=templinst|arch=i386)_ZN10DefaultMapIixE3getEi@Base 2.41
 (optional=templinst|arch=i386)_ZN10DefaultMapIixE3getEiN3MapIixE8RelationE@Base 2.41
 (optional=templinst|arch=i386)_ZN10DefaultMapIixE3putEix@Base 2.41
 (optional=templinst|arch=i386)_ZN10DefaultMapIixE6keySetEv@Base 2.41
 (optional=templinst|arch=i386)_ZN10DefaultMapIixE6removeEi@Base 2.41
 (optional=templinst|arch=i386)_ZN10DefaultMapIixE6valuesEv@Base 2.41
 (optional=templinst|arch=i386)_ZN10DefaultMapIixED0Ev@Base 2.41
 (optional=templinst|arch=i386)_ZN10DefaultMapIixED1Ev@Base 2.41
 (optional=templinst|arch=i386)_ZN10DefaultMapIixED2Ev@Base 2.41
 (optional=templinst|arch=!x32)_ZN10DefaultMapIjP3MapIxPvEE3getEj@Base 2.41
 (optional=templinst|arch=!x32)_ZN10DefaultMapIjP3MapIxPvEE3getEjNS0_IjS3_E8RelationE@Base 2.41
 (optional=templinst|arch=!x32)_ZN10DefaultMapIjP3MapIxPvEE3putEjS3_@Base 2.41
 (optional=templinst|arch=!x32)_ZN10DefaultMapIjP3MapIxPvEE6keySetEv@Base 2.41
 (optional=templinst|arch=!x32)_ZN10DefaultMapIjP3MapIxPvEE6removeEj@Base 2.41
 (optional=templinst|arch=!x32)_ZN10DefaultMapIjP3MapIxPvEE6valuesEv@Base 2.41
 (optional=templinst|arch=!x32)_ZN10DefaultMapIjP3MapIxPvEED0Ev@Base 2.41
 (optional=templinst|arch=!x32)_ZN10DefaultMapIjP3MapIxPvEED1Ev@Base 2.41
 (optional=templinst|arch=!x32)_ZN10DefaultMapIjP3MapIxPvEED2Ev@Base 2.41
 (optional=templinst|arch=!x32)_ZN10DefaultMapIjP3MapIxmEE3getEj@Base 2.41
 (optional=templinst|arch=!x32)_ZN10DefaultMapIjP3MapIxmEE3getEjNS0_IjS2_E8RelationE@Base 2.41
 (optional=templinst|arch=!x32)_ZN10DefaultMapIjP3MapIxmEE3putEjS2_@Base 2.41
 (optional=templinst|arch=!x32)_ZN10DefaultMapIjP3MapIxmEE6keySetEv@Base 2.41
 (optional=templinst|arch=!x32)_ZN10DefaultMapIjP3MapIxmEE6removeEj@Base 2.41
 (optional=templinst|arch=!x32)_ZN10DefaultMapIjP3MapIxmEE6valuesEv@Base 2.41
 (optional=templinst|arch=!x32)_ZN10DefaultMapIjP3MapIxmEED0Ev@Base 2.41
 (optional=templinst|arch=!x32)_ZN10DefaultMapIjP3MapIxmEED1Ev@Base 2.41
 (optional=templinst|arch=!x32)_ZN10DefaultMapIjP3MapIxmEED2Ev@Base 2.41
 (optional=templinst|arch=i386)_ZN10DefaultMapIjP3MapIxyEE3getEj@Base 2.41
 (optional=templinst|arch=i386)_ZN10DefaultMapIjP3MapIxyEE3getEjNS0_IjS2_E8RelationE@Base 2.41
 (optional=templinst|arch=i386)_ZN10DefaultMapIjP3MapIxyEE3putEjS2_@Base 2.41
 (optional=templinst|arch=i386)_ZN10DefaultMapIjP3MapIxyEE6keySetEv@Base 2.41
 (optional=templinst|arch=i386)_ZN10DefaultMapIjP3MapIxyEE6removeEj@Base 2.41
 (optional=templinst|arch=i386)_ZN10DefaultMapIjP3MapIxyEE6valuesEv@Base 2.41
 (optional=templinst|arch=i386)_ZN10DefaultMapIjP3MapIxyEED0Ev@Base 2.41
 (optional=templinst|arch=i386)_ZN10DefaultMapIjP3MapIxyEED1Ev@Base 2.41
 (optional=templinst|arch=i386)_ZN10DefaultMapIjP3MapIxyEED2Ev@Base 2.41
 (optional=templinst|arch=!x32)_ZN10DefaultMapIlP8Dwr_typeE3getEl@Base 2.41
 (optional=templinst|arch=!x32)_ZN10DefaultMapIlP8Dwr_typeE3getElN3MapIlS1_E8RelationE@Base 2.41
 (optional=templinst|arch=!x32)_ZN10DefaultMapIlP8Dwr_typeE3putElS1_@Base 2.41
 (optional=templinst|arch=!x32)_ZN10DefaultMapIlP8Dwr_typeE6keySetEv@Base 2.41
 (optional=templinst|arch=!x32)_ZN10DefaultMapIlP8Dwr_typeE6removeEl@Base 2.41
 (optional=templinst|arch=!x32)_ZN10DefaultMapIlP8Dwr_typeE6valuesEv@Base 2.41
 (optional=templinst|arch=!x32)_ZN10DefaultMapIlP8Dwr_typeED0Ev@Base 2.41
 (optional=templinst|arch=!x32)_ZN10DefaultMapIlP8Dwr_typeED1Ev@Base 2.41
 (optional=templinst|arch=!x32)_ZN10DefaultMapIlP8Dwr_typeED2Ev@Base 2.41
 (optional=templinst|arch=!x32)_ZN10DefaultMapIlP8FileDataE3getEl@Base 2.41
 (optional=templinst|arch=!x32)_ZN10DefaultMapIlP8FileDataE3getElN3MapIlS1_E8RelationE@Base 2.41
 (optional=templinst|arch=!x32)_ZN10DefaultMapIlP8FileDataE3putElS1_@Base 2.41
 (optional=templinst|arch=!x32)_ZN10DefaultMapIlP8FileDataE6keySetEv@Base 2.41
 (optional=templinst|arch=!x32)_ZN10DefaultMapIlP8FileDataE6removeEl@Base 2.41
 (optional=templinst|arch=!x32)_ZN10DefaultMapIlP8FileDataE6valuesEv@Base 2.41
 (optional=templinst|arch=!x32)_ZN10DefaultMapIlP8FileDataED0Ev@Base 2.41
 (optional=templinst|arch=!x32)_ZN10DefaultMapIlP8FileDataED1Ev@Base 2.41
 (optional=templinst|arch=!x32)_ZN10DefaultMapIlP8FileDataED2Ev@Base 2.41
 (optional=templinst|arch=!x32)_ZN10DefaultMapImP6VectorIiEE3getEm@Base 2.41
 (optional=templinst|arch=!x32)_ZN10DefaultMapImP6VectorIiEE3getEmN3MapImS2_E8RelationE@Base 2.41
 (optional=templinst|arch=!x32)_ZN10DefaultMapImP6VectorIiEE3putEmS2_@Base 2.41
 (optional=templinst|arch=!x32)_ZN10DefaultMapImP6VectorIiEE6keySetEv@Base 2.41
 (optional=templinst|arch=!x32)_ZN10DefaultMapImP6VectorIiEE6removeEm@Base 2.41
 (optional=templinst|arch=!x32)_ZN10DefaultMapImP6VectorIiEE6valuesEv@Base 2.41
 (optional=templinst|arch=!x32)_ZN10DefaultMapImP6VectorIiEED0Ev@Base 2.41
 (optional=templinst|arch=!x32)_ZN10DefaultMapImP6VectorIiEED1Ev@Base 2.41
 (optional=templinst|arch=!x32)_ZN10DefaultMapImP6VectorIiEED2Ev@Base 2.41
 (optional=templinst|arch=!x32)_ZN10DefaultMapImP8HeapDataE3getEm@Base 2.41
 (optional=templinst|arch=!x32)_ZN10DefaultMapImP8HeapDataE3getEmN3MapImS1_E8RelationE@Base 2.41
 (optional=templinst|arch=!x32)_ZN10DefaultMapImP8HeapDataE3putEmS1_@Base 2.41
 (optional=templinst|arch=!x32)_ZN10DefaultMapImP8HeapDataE6keySetEv@Base 2.41
 (optional=templinst|arch=!x32)_ZN10DefaultMapImP8HeapDataE6removeEm@Base 2.41
 (optional=templinst|arch=!x32)_ZN10DefaultMapImP8HeapDataE6valuesEv@Base 2.41
 (optional=templinst|arch=!x32)_ZN10DefaultMapImP8HeapDataED0Ev@Base 2.41
 (optional=templinst|arch=!x32)_ZN10DefaultMapImP8HeapDataED1Ev@Base 2.41
 (optional=templinst|arch=!x32)_ZN10DefaultMapImP8HeapDataED2Ev@Base 2.41
 (optional=templinst|arch=!x32)_ZN10DefaultMapImiE3getEm@Base 2.41
 (optional=templinst|arch=!x32)_ZN10DefaultMapImiE3getEmN3MapImiE8RelationE@Base 2.41
 (optional=templinst|arch=!x32)_ZN10DefaultMapImiE3putEmi@Base 2.41
 (optional=templinst|arch=!x32)_ZN10DefaultMapImiE6keySetEv@Base 2.41
 (optional=templinst|arch=!x32)_ZN10DefaultMapImiE6removeEm@Base 2.41
 (optional=templinst|arch=!x32)_ZN10DefaultMapImiE6valuesEv@Base 2.41
 (optional=templinst|arch=!x32)_ZN10DefaultMapImiEC1Ev@Base 2.41
 (optional=templinst|arch=!x32)_ZN10DefaultMapImiEC2Ev@Base 2.41
 (optional=templinst|arch=!x32)_ZN10DefaultMapImiED0Ev@Base 2.41
 (optional=templinst|arch=!x32)_ZN10DefaultMapImiED1Ev@Base 2.41
 (optional=templinst|arch=!x32)_ZN10DefaultMapImiED2Ev@Base 2.41
 (optional=templinst|arch=i386)_ZN10DefaultMapIxP8Dwr_typeE3getEx@Base 2.41
 (optional=templinst|arch=i386)_ZN10DefaultMapIxP8Dwr_typeE3getExN3MapIxS1_E8RelationE@Base 2.41
 (optional=templinst|arch=i386)_ZN10DefaultMapIxP8Dwr_typeE3putExS1_@Base 2.41
 (optional=templinst|arch=i386)_ZN10DefaultMapIxP8Dwr_typeE6keySetEv@Base 2.41
 (optional=templinst|arch=i386)_ZN10DefaultMapIxP8Dwr_typeE6removeEx@Base 2.41
 (optional=templinst|arch=i386)_ZN10DefaultMapIxP8Dwr_typeE6valuesEv@Base 2.41
 (optional=templinst|arch=i386)_ZN10DefaultMapIxP8Dwr_typeED0Ev@Base 2.41
 (optional=templinst|arch=i386)_ZN10DefaultMapIxP8Dwr_typeED1Ev@Base 2.41
 (optional=templinst|arch=i386)_ZN10DefaultMapIxP8Dwr_typeED2Ev@Base 2.41
 (optional=templinst|arch=i386)_ZN10DefaultMapIxP8FileDataE3getEx@Base 2.41
 (optional=templinst|arch=i386)_ZN10DefaultMapIxP8FileDataE3getExN3MapIxS1_E8RelationE@Base 2.41
 (optional=templinst|arch=i386)_ZN10DefaultMapIxP8FileDataE3putExS1_@Base 2.41
 (optional=templinst|arch=i386)_ZN10DefaultMapIxP8FileDataE6keySetEv@Base 2.41
 (optional=templinst|arch=i386)_ZN10DefaultMapIxP8FileDataE6removeEx@Base 2.41
 (optional=templinst|arch=i386)_ZN10DefaultMapIxP8FileDataE6valuesEv@Base 2.41
 (optional=templinst|arch=i386)_ZN10DefaultMapIxP8FileDataED0Ev@Base 2.41
 (optional=templinst|arch=i386)_ZN10DefaultMapIxP8FileDataED1Ev@Base 2.41
 (optional=templinst|arch=i386)_ZN10DefaultMapIxP8FileDataED2Ev@Base 2.41
 (optional=templinst|arch=!x32)_ZN10DefaultMapIxPvE3getEx@Base 2.41
 (optional=templinst|arch=!x32)_ZN10DefaultMapIxPvE3getExN3MapIxS0_E8RelationE@Base 2.41
 (optional=templinst|arch=!x32)_ZN10DefaultMapIxPvE3putExS0_@Base 2.41
 (optional=templinst|arch=!x32)_ZN10DefaultMapIxPvE6keySetEv@Base 2.41
 (optional=templinst|arch=!x32)_ZN10DefaultMapIxPvE6removeEx@Base 2.41
 (optional=templinst|arch=!x32)_ZN10DefaultMapIxPvE6valuesEv@Base 2.41
 (optional=templinst|arch=!x32)_ZN10DefaultMapIxPvED0Ev@Base 2.41
 (optional=templinst|arch=!x32)_ZN10DefaultMapIxPvED1Ev@Base 2.41
 (optional=templinst|arch=!x32)_ZN10DefaultMapIxPvED2Ev@Base 2.41
 (optional=templinst|arch=!x32)_ZN10DefaultMapIxlE3getEx@Base 2.41
 (optional=templinst|arch=!x32)_ZN10DefaultMapIxlE3getExN3MapIxlE8RelationE@Base 2.41
 (optional=templinst|arch=!x32)_ZN10DefaultMapIxlE3putExl@Base 2.41
 (optional=templinst|arch=!x32)_ZN10DefaultMapIxlE6keySetEv@Base 2.41
 (optional=templinst|arch=!x32)_ZN10DefaultMapIxlE6removeEx@Base 2.41
 (optional=templinst|arch=!x32)_ZN10DefaultMapIxlE6valuesEv@Base 2.41
 (optional=templinst|arch=!x32)_ZN10DefaultMapIxlEC1Ev@Base 2.41
 (optional=templinst|arch=!x32)_ZN10DefaultMapIxlEC2Ev@Base 2.41
 (optional=templinst|arch=!x32)_ZN10DefaultMapIxlED0Ev@Base 2.41
 (optional=templinst|arch=!x32)_ZN10DefaultMapIxlED1Ev@Base 2.41
 (optional=templinst|arch=!x32)_ZN10DefaultMapIxlED2Ev@Base 2.41
 (optional=templinst|arch=!x32)_ZN10DefaultMapIxmE3getEx@Base 2.41
 (optional=templinst|arch=!x32)_ZN10DefaultMapIxmE3getExN3MapIxmE8RelationE@Base 2.41
 (optional=templinst|arch=!x32)_ZN10DefaultMapIxmE3putExm@Base 2.41
 (optional=templinst|arch=!x32)_ZN10DefaultMapIxmE6keySetEv@Base 2.41
 (optional=templinst|arch=!x32)_ZN10DefaultMapIxmE6removeEx@Base 2.41
 (optional=templinst|arch=!x32)_ZN10DefaultMapIxmE6valuesEv@Base 2.41
 (optional=templinst|arch=!x32)_ZN10DefaultMapIxmED0Ev@Base 2.41
 (optional=templinst|arch=!x32)_ZN10DefaultMapIxmED1Ev@Base 2.41
 (optional=templinst|arch=!x32)_ZN10DefaultMapIxmED2Ev@Base 2.41
 (optional=templinst|arch=!x32)_ZN10DefaultMapIxxE3getEx@Base 2.41
 (optional=templinst|arch=!x32)_ZN10DefaultMapIxxE3getExN3MapIxxE8RelationE@Base 2.41
 (optional=templinst|arch=!x32)_ZN10DefaultMapIxxE3putExx@Base 2.41
 (optional=templinst|arch=!x32)_ZN10DefaultMapIxxE6keySetEv@Base 2.41
 (optional=templinst|arch=!x32)_ZN10DefaultMapIxxE6removeEx@Base 2.41
 (optional=templinst|arch=!x32)_ZN10DefaultMapIxxE6valuesEv@Base 2.41
 (optional=templinst|arch=!x32)_ZN10DefaultMapIxxEC1Ev@Base 2.41
 (optional=templinst|arch=!x32)_ZN10DefaultMapIxxEC2Ev@Base 2.41
 (optional=templinst|arch=!x32)_ZN10DefaultMapIxxED0Ev@Base 2.41
 (optional=templinst|arch=!x32)_ZN10DefaultMapIxxED1Ev@Base 2.41
 (optional=templinst|arch=!x32)_ZN10DefaultMapIxxED2Ev@Base 2.41
 (optional=templinst|arch=i386)_ZN10DefaultMapIxyE3getEx@Base 2.41
 (optional=templinst|arch=i386)_ZN10DefaultMapIxyE3getExN3MapIxyE8RelationE@Base 2.41
 (optional=templinst|arch=i386)_ZN10DefaultMapIxyE3putExy@Base 2.41
 (optional=templinst|arch=i386)_ZN10DefaultMapIxyE6keySetEv@Base 2.41
 (optional=templinst|arch=i386)_ZN10DefaultMapIxyE6removeEx@Base 2.41
 (optional=templinst|arch=i386)_ZN10DefaultMapIxyE6valuesEv@Base 2.41
 (optional=templinst|arch=i386)_ZN10DefaultMapIxyED0Ev@Base 2.41
 (optional=templinst|arch=i386)_ZN10DefaultMapIxyED1Ev@Base 2.41
 (optional=templinst|arch=i386)_ZN10DefaultMapIxyED2Ev@Base 2.41
 (optional=templinst|arch=i386)_ZN10DefaultMapIyP6VectorIiEE3getEy@Base 2.41
 (optional=templinst|arch=i386)_ZN10DefaultMapIyP6VectorIiEE3getEyN3MapIyS2_E8RelationE@Base 2.41
 (optional=templinst|arch=i386)_ZN10DefaultMapIyP6VectorIiEE3putEyS2_@Base 2.41
 (optional=templinst|arch=i386)_ZN10DefaultMapIyP6VectorIiEE6keySetEv@Base 2.41
 (optional=templinst|arch=i386)_ZN10DefaultMapIyP6VectorIiEE6removeEy@Base 2.41
 (optional=templinst|arch=i386)_ZN10DefaultMapIyP6VectorIiEE6valuesEv@Base 2.41
 (optional=templinst|arch=i386)_ZN10DefaultMapIyP6VectorIiEED0Ev@Base 2.41
 (optional=templinst|arch=i386)_ZN10DefaultMapIyP6VectorIiEED1Ev@Base 2.41
 (optional=templinst|arch=i386)_ZN10DefaultMapIyP6VectorIiEED2Ev@Base 2.41
 (optional=templinst|arch=i386)_ZN10DefaultMapIyP8HeapDataE3getEy@Base 2.41
 (optional=templinst|arch=i386)_ZN10DefaultMapIyP8HeapDataE3getEyN3MapIyS1_E8RelationE@Base 2.41
 (optional=templinst|arch=i386)_ZN10DefaultMapIyP8HeapDataE3putEyS1_@Base 2.41
 (optional=templinst|arch=i386)_ZN10DefaultMapIyP8HeapDataE6keySetEv@Base 2.41
 (optional=templinst|arch=i386)_ZN10DefaultMapIyP8HeapDataE6removeEy@Base 2.41
 (optional=templinst|arch=i386)_ZN10DefaultMapIyP8HeapDataE6valuesEv@Base 2.41
 (optional=templinst|arch=i386)_ZN10DefaultMapIyP8HeapDataED0Ev@Base 2.41
 (optional=templinst|arch=i386)_ZN10DefaultMapIyP8HeapDataED1Ev@Base 2.41
 (optional=templinst|arch=i386)_ZN10DefaultMapIyP8HeapDataED2Ev@Base 2.41
 (optional=templinst|arch=i386)_ZN10DefaultMapIyiE3getEy@Base 2.41
 (optional=templinst|arch=i386)_ZN10DefaultMapIyiE3getEyN3MapIyiE8RelationE@Base 2.41
 (optional=templinst|arch=i386)_ZN10DefaultMapIyiE3putEyi@Base 2.41
 (optional=templinst|arch=i386)_ZN10DefaultMapIyiE6keySetEv@Base 2.41
 (optional=templinst|arch=i386)_ZN10DefaultMapIyiE6removeEy@Base 2.41
 (optional=templinst|arch=i386)_ZN10DefaultMapIyiE6valuesEv@Base 2.41
 (optional=templinst|arch=i386)_ZN10DefaultMapIyiEC1Ev@Base 2.41
 (optional=templinst|arch=i386)_ZN10DefaultMapIyiEC2Ev@Base 2.41
 (optional=templinst|arch=i386)_ZN10DefaultMapIyiED0Ev@Base 2.41
 (optional=templinst|arch=i386)_ZN10DefaultMapIyiED1Ev@Base 2.41
 (optional=templinst|arch=i386)_ZN10DefaultMapIyiED2Ev@Base 2.41
 _ZN10Definition14add_definitionEPc@Base 2.41
 _ZN10Definition16get_dependenciesEv@Base 2.41
 _ZN10Definition4evalEPlP6TValue@Base 2.41
 _ZN10Definition7get_mapEv@Base 2.41
 _ZN10DefinitionC1ENS_6opTypeE@Base 2.41
 _ZN10DefinitionC2ENS_6opTypeE@Base 2.41
 _ZN10DefinitionD1Ev@Base 2.41
 _ZN10DefinitionD2Ev@Base 2.41
 _ZN10Experiment10DBG_memuseEP6Sample@Base 2.41
 _ZN10Experiment10DBG_memuseEPKc@Base 2.41
 _ZN10Experiment10create_dirEPc@Base 2.41
 _ZN10Experiment10getTagObjsE9Prop_type@Base 2.41
 _ZN10Experiment10get_jclassEPKcS1_@Base 2.41
 _ZN10Experiment10get_sourceEPKc@Base 2.41
 _ZN10Experiment10init_cacheEv@Base 2.41
 _ZN10Experiment10readPacketEP11Data_windowPNS0_4SpanE@Base 2.41
 (arch=!x32)_ZN10Experiment10readPacketEP11Data_windowPcP16PacketDescriptorP14DataDescriptorim@Base 2.41
 (arch=i386 x32)_ZN10Experiment10readPacketEP11Data_windowPcP16PacketDescriptorP14DataDescriptoriy@Base 2.41
 _ZN10Experiment10save_notesEPcb@Base 2.41
 _ZN10Experiment10uidNodeCmpEPKvS1_@Base 2.41
 _ZN10Experiment11dump_stacksEP8_IO_FILE@Base 2.41
 _ZN10Experiment11fetch_ifreqEv@Base 2.41
 _ZN10Experiment11fetch_notesEv@Base 2.41
 _ZN10Experiment11find_expdirEPc@Base 2.41
 _ZN10Experiment11get_jthreadEj@Base 2.41
 (arch=!x32)_ZN10Experiment11mapTagValueE9Prop_typem@Base 2.41
 (arch=i386 x32)_ZN10Experiment11mapTagValueE9Prop_typey@Base 2.41
 _ZN10Experiment11mrec_insertEPNS_9MapRecordE@Base 2.41
 _ZN10Experiment12base_data_idEi@Base 2.41
 _ZN10Experiment12delete_notesEb@Base 2.41
 _ZN10Experiment12fetch_errorsEv@Base 2.41
 _ZN10Experiment12fetch_pprocqEv@Base 2.41
 (arch=!x32)_ZN10Experiment12get_uid_nodeEm@Base 2.41
 (arch=!x32)_ZN10Experiment12get_uid_nodeEmm@Base 2.41
 (arch=i386 x32)_ZN10Experiment12get_uid_nodeEy@Base 2.41
 (arch=i386 x32)_ZN10Experiment12get_uid_nodeEyy@Base 2.41
 (arch=!x32)_ZN10Experiment12new_uid_nodeEmm@Base 2.41
 (arch=i386 x32)_ZN10Experiment12new_uid_nodeEyy@Base 2.41
 _ZN10Experiment12post_processEv@Base 2.41
 _ZN10Experiment12write_headerEv@Base 2.41
 _ZN10Experiment13fetch_runlogqEv@Base 2.41
 (arch=!x32)_ZN10Experiment13find_uid_nodeEm@Base 2.41
 (arch=i386 x32)_ZN10Experiment13find_uid_nodeEy@Base 2.41
 _ZN10Experiment13get_arch_nameEv@Base 2.41
 _ZN10Experiment13get_gc_eventsEv@Base 2.41
 _ZN10Experiment13open_epilogueEv@Base 2.41
 _ZN10Experiment13read_archivesEv@Base 2.41
 _ZN10Experiment13read_log_fileEv@Base 2.41
 _ZN10Experiment13read_map_fileEv@Base 2.41
 _ZN10Experiment13read_omp_fileEv@Base 2.41
 _ZN10Experiment13read_omp_pregEv@Base 2.41
 _ZN10Experiment13read_omp_taskEv@Base 2.41
 _ZN10Experiment14ExperimentFile4openEb@Base 2.41
 _ZN10Experiment14ExperimentFile5closeEv@Base 2.41
 _ZN10Experiment14ExperimentFile5fgetsEv@Base 2.41
 _ZN10Experiment14ExperimentFileC1EPS_PKc@Base 2.41
 _ZN10Experiment14ExperimentFileC2EPS_PKc@Base 2.41
 _ZN10Experiment14ExperimentFileD1Ev@Base 2.41
 _ZN10Experiment14ExperimentFileD2Ev@Base 2.41
 (arch=!x32)_ZN10Experiment14create_dynfuncEP6ModulePcll@Base 2.41
 (arch=i386 x32)_ZN10Experiment14create_dynfuncEP6ModulePcxx@Base 2.41
 _ZN10Experiment14fetch_commentsEv@Base 2.41
 _ZN10Experiment14fetch_warningsEv@Base 2.41
 _ZN10Experiment14getBaseFounderEv@Base 2.41
 _ZN10Experiment14get_dynfunc_loEPKc@Base 2.41
 _ZN10Experiment14get_hwc_eventsEv@Base 2.41
 _ZN10Experiment14get_raw_eventsEi@Base 2.41
 _ZN10Experiment14map_jmid_to_PCEyix@Base 2.41
 _ZN10Experiment14read_data_fileEPKcS1_@Base 2.41
 _ZN10Experiment14read_warn_fileEv@Base 2.41
 _ZN10Experiment15get_heap_eventsEv@Base 2.41
 _ZN10Experiment15get_race_eventsEv@Base 2.41
 _ZN10Experiment15get_sync_eventsEv@Base 2.41
 _ZN10Experiment15map_Vaddr_to_PCEyx@Base 2.41
 _ZN10Experiment15read_ifreq_fileEv@Base 2.41
 _ZN10Experiment15read_notes_fileEv@Base 2.41
 _ZN10Experiment15register_metricEN10BaseMetric4TypeE@Base 2.41
 _ZN10Experiment15register_metricEP8HwcentryPKcS3_@Base 2.41
 _ZN10Experiment16createLoadObjectEPKcS1_@Base 2.41
 (arch=!x32)_ZN10Experiment16createLoadObjectEPKcm@Base 2.41
 (arch=i386 x32)_ZN10Experiment16createLoadObjectEPKcy@Base 2.41
 _ZN10Experiment16getNameInArchiveEPKcb@Base 2.41
 _ZN10Experiment16read_labels_fileEv@Base 2.41
 _ZN10Experiment17ExperimentHandler10charactersEPcii@Base 2.41
 _ZN10Experiment17ExperimentHandler10endElementEPcS1_S1_@Base 2.41
 _ZN10Experiment17ExperimentHandler11endDocumentEv@Base 2.41
 _ZN10Experiment17ExperimentHandler12startElementEPcS1_S1_P10Attributes@Base 2.41
 (arch=!x32)_ZN10Experiment17ExperimentHandler13startDocumentEv@Base 2.41
 (arch=!x32)_ZN10Experiment17ExperimentHandler19ignorableWhitespaceEPcii@Base 2.41
 _ZN10Experiment17ExperimentHandler5errorEP17SAXParseException@Base 2.41
 _ZN10Experiment17ExperimentHandler5toIntEP10AttributesPKc@Base 2.41
 _ZN10Experiment17ExperimentHandler5toStrEP10AttributesPKc@Base 2.41
 _ZN10Experiment17ExperimentHandler7popElemEv@Base 2.41
 _ZN10Experiment17ExperimentHandler8pushElemENS0_7ElementE@Base 2.41
 _ZN10Experiment17ExperimentHandlerC1EPS_@Base 2.41
 _ZN10Experiment17ExperimentHandlerC2EPS_@Base 2.41
 _ZN10Experiment17ExperimentHandlerD0Ev@Base 2.41
 _ZN10Experiment17ExperimentHandlerD1Ev@Base 2.41
 _ZN10Experiment17ExperimentHandlerD2Ev@Base 2.41
 _ZN10Experiment17findFileInArchiveEPKc@Base 2.41
 _ZN10Experiment17findFileInArchiveEPKcS1_@Base 2.41
 (arch=!x32)_ZN10Experiment17find_frame_packetEm@Base 2.41
 (arch=i386 x32)_ZN10Experiment17find_frame_packetEy@Base 2.41
 _ZN10Experiment17getDataDescriptorEi@Base 2.41
 _ZN10Experiment17get_archived_nameEPKcb@Base 2.41
 _ZN10Experiment17get_heapsz_eventsEv@Base 2.41
 _ZN10Experiment17get_sample_eventsEv@Base 2.41
 _ZN10Experiment17newDataDescriptorEiiP14DataDescriptor@Base 2.41
 _ZN10Experiment17read_dyntext_fileEv@Base 2.41
 _ZN10Experiment17update_last_eventEx@Base 2.41
 _ZN10Experiment17update_ts_in_mapsEyx@Base 2.41
 _ZN10Experiment17write_coll_paramsEv@Base 2.41
 _ZN10Experiment18checkFileInArchiveEPKcb@Base 2.41
 _ZN10Experiment18getDataDescriptorsEv@Base 2.41
 _ZN10Experiment18get_fndr_arch_nameEv@Base 2.41
 _ZN10Experiment18get_iotrace_eventsEv@Base 2.41
 _ZN10Experiment18get_profile_eventsEv@Base 2.41
 _ZN10Experiment18process_gc_end_cmdEx@Base 2.41
 _ZN10Experiment18process_sample_cmdEPcxiS0_@Base 2.41
 _ZN10Experiment18read_overview_fileEv@Base 2.41
 _ZN10Experiment18resetShowHideStackEv@Base 2.41
 _ZN10Experiment18resolve_frame_infoEP14DataDescriptor@Base 2.41
 _ZN10Experiment19getPacketDescriptorEi@Base 2.41
 _ZN10Experiment19get_comparable_objsEv@Base 2.41
 _ZN10Experiment19get_deadlock_eventsEv@Base 2.41
 _ZN10Experiment19map_event_to_SampleEx@Base 2.41
 _ZN10Experiment19map_pckt_to_JthreadEjx@Base 2.41
 _ZN10Experiment19newPacketDescriptorEiP14DataDescriptor@Base 2.41
 _ZN10Experiment19process_arglist_cmdEPcS0_@Base 2.41
 _ZN10Experiment19process_fn_load_cmdEP6ModulePcyix@Base 2.41
 (arch=!x32)_ZN10Experiment19process_seg_map_cmdEPcxyiilllS0_@Base 2.41
 (arch=i386 x32)_ZN10Experiment19process_seg_map_cmdEPcxyiixxxS0_@Base 2.41
 _ZN10Experiment19read_frameinfo_fileEv@Base 2.41
 _ZN10Experiment20copy_file_to_archiveEPKcS1_i@Base 2.41
 _ZN10Experiment20getRelativeStartTimeEv@Base 2.41
 _ZN10Experiment20map_event_to_GCEventEx@Base 2.41
 _ZN10Experiment20process_gc_start_cmdEx@Base 2.41
 _ZN10Experiment20process_hwsimctr_cmdEPciS0_S0_S0_iiiii@Base 2.41
 _ZN10Experiment20process_jcm_load_cmdEPcyyix@Base 2.41
 (arch=!x32)_ZN10Experiment20process_jthr_end_cmdEPcmyyx@Base 2.41
 (arch=i386 x32)_ZN10Experiment20process_jthr_end_cmdEPcyyyx@Base 2.41
 _ZN10Experiment20read_experiment_dataEb@Base 2.41
 _ZN10Experiment21get_descendants_namesEv@Base 2.41
 _ZN10Experiment21process_fn_unload_cmdEPcyx@Base 2.41
 _ZN10Experiment21process_hwcounter_cmdEPciS0_S0_iiiS0_@Base 2.41
 _ZN10Experiment21process_seg_unmap_cmdEPcxy@Base 2.41
 _ZN10Experiment22process_desc_start_cmdEPcxS0_S0_iS0_@Base 2.41
 _ZN10Experiment22process_jcm_unload_cmdEPcyx@Base 2.41
 (arch=!x32)_ZN10Experiment22process_jthr_start_cmdEPcS0_S0_S0_myyx@Base 2.41
 (arch=i386 x32)_ZN10Experiment22process_jthr_start_cmdEPcS0_S0_S0_yyyx@Base 2.41
 _ZN10Experiment22process_sample_sig_cmdEPci@Base 2.41
 _ZN10Experiment22read_java_classes_fileEv@Base 2.41
 (arch=!x32)_ZN10Experiment23ExperimentLabelsHandler10charactersEPcii@Base 2.41
 (arch=!x32)_ZN10Experiment23ExperimentLabelsHandler10endElementEPcS1_S1_@Base 2.41
 (arch=!x32)_ZN10Experiment23ExperimentLabelsHandler11endDocumentEv@Base 2.41
 _ZN10Experiment23ExperimentLabelsHandler12startElementEPcS1_S1_P10Attributes@Base 2.41
 (arch=!x32)_ZN10Experiment23ExperimentLabelsHandler13startDocumentEv@Base 2.41
 (arch=!x32)_ZN10Experiment23ExperimentLabelsHandler19ignorableWhitespaceEPcii@Base 2.41
 (arch=!x32)_ZN10Experiment23ExperimentLabelsHandler5errorEP17SAXParseException@Base 2.41
 (arch=!x32)_ZN10Experiment23ExperimentLabelsHandlerD0Ev@Base 2.41
 (arch=!x32)_ZN10Experiment23ExperimentLabelsHandlerD1Ev@Base 2.41
 (arch=!x32)_ZN10Experiment23ExperimentLabelsHandlerD2Ev@Base 2.41
 _ZN10Experiment23create_heapsz_data_viewEP8DataView@Base 2.41
 _ZN10Experiment24compute_heapsz_data_viewEP8DataView@Base 2.41
 _ZN10Experiment24create_derived_data_viewEiP8DataView@Base 2.41
 _ZN10Experiment24process_Linux_kernel_cmdEx@Base 2.41
 _ZN10Experiment24process_desc_started_cmdEPcxS0_S0_iS0_@Base 2.41
 _ZN10Experiment27copy_file_to_common_archiveEPKcS1_iS1_i@Base 2.41
 _ZN10Experiment30add_evt_time_to_profile_eventsEP14DataDescriptor@Base 2.41
 _ZN10Experiment4finiEv@Base 2.41
 _ZN10Experiment4initEv@Base 2.41
 _ZN10Experiment4openEPc@Base 2.41
 _ZN10Experiment5purgeEv@Base 2.41
 _ZN10Experiment6appendEP10LoadObject@Base 2.41
 _ZN10Experiment6updateEv@Base 2.41
 (arch=!x32)_ZN10Experiment7add_uidEP11Data_windowmiPjm@Base 2.41
 (arch=!x32)_ZN10Experiment7add_uidEP11Data_windowmiPmm@Base 2.41
 (arch=i386 x32)_ZN10Experiment7add_uidEP11Data_windowyiPjy@Base 2.41
 (arch=i386 x32)_ZN10Experiment7add_uidEP11Data_windowyiPyy@Base 2.41
 _ZN10Experiment8dump_mapEP8_IO_FILE@Base 2.41
 _ZN10Experiment8frUidCmpEPKvS1_@Base 2.41
 _ZN10Experiment8get_j_loEPKcS1_@Base 2.41
 (arch=!x32)_ZN10Experiment8get_typeEv@Base 2.41
 _ZN10Experiment9copy_fileEPcS0_iS0_i@Base 2.41
 _ZN10Experiment9getTagObjE9Prop_typej@Base 2.41
 _ZN10Experiment9set_clockEi@Base 2.41
 _ZN10ExperimentC1Ev@Base 2.41
 _ZN10ExperimentC2Ev@Base 2.41
 _ZN10ExperimentD0Ev@Base 2.41
 _ZN10ExperimentD1Ev@Base 2.41
 _ZN10ExperimentD2Ev@Base 2.41
 _ZN10Expression13hasLoadObjectEv@Base 2.41
 _ZN10Expression18verifyObjectInExprEP8Histable@Base 2.41
 _ZN10Expression4copyEPKS_@Base 2.41
 _ZN10Expression5bEvalEPNS_7ContextE@Base 2.41
 _ZN10Expression5pEvalEPNS_7ContextE@Base 2.41
 _ZN10Expression6getValEiPNS_7ContextE@Base 2.41
 _ZN10Expression7ContextC1EP7DbeViewP10Experiment@Base 2.41
 _ZN10Expression7ContextC1EP7DbeViewP10ExperimentP8DataViewl@Base 2.41
 _ZN10Expression7ContextC2EP7DbeViewP10Experiment@Base 2.41
 _ZN10Expression7ContextC2EP7DbeViewP10ExperimentP8DataViewl@Base 2.41
 _ZN10ExpressionC1ENS_6OpCodeEPKS_S2_@Base 2.41
 (arch=!x32)_ZN10ExpressionC1ENS_6OpCodeEm@Base 2.41
 (arch=i386 x32)_ZN10ExpressionC1ENS_6OpCodeEy@Base 2.41
 _ZN10ExpressionC1EPKS_@Base 2.41
 _ZN10ExpressionC1ERKS_@Base 2.41
 _ZN10ExpressionC2ENS_6OpCodeEPKS_S2_@Base 2.41
 (arch=!x32)_ZN10ExpressionC2ENS_6OpCodeEm@Base 2.41
 (arch=i386 x32)_ZN10ExpressionC2ENS_6OpCodeEy@Base 2.41
 _ZN10ExpressionC2EPKS_@Base 2.41
 _ZN10ExpressionC2ERKS_@Base 2.41
 _ZN10ExpressionD1Ev@Base 2.41
 _ZN10ExpressionD2Ev@Base 2.41
 _ZN10ExpressionaSERKS_@Base 2.41
 _ZN10FieldDescrC1EiPKc@Base 2.41
 _ZN10FieldDescrC2EiPKc@Base 2.41
 _ZN10FieldDescrD0Ev@Base 2.41
 _ZN10FieldDescrD1Ev@Base 2.41
 _ZN10FieldDescrD2Ev@Base 2.41
 _ZN10IOActivity11computeDataEN8Histable4TypeE@Base 2.41
 _ZN10IOActivity15computeHistDataEP9Hist_dataP10MetricListNS0_4ModeEP8Histable@Base 2.41
 _ZN10IOActivity15compute_metricsEP10MetricListN8Histable4TypeEN9Hist_data4ModeEPS2_@Base 2.41
 _ZN10IOActivity16computeCallStackEN8Histable4TypeE5VMode@Base 2.41
 _ZN10IOActivity17computeHistTotalsEP9Hist_dataP10MetricList@Base 2.41
 _ZN10IOActivity20createHistItemTotalsEP9Hist_dataP10MetricListN8Histable4TypeEb@Base 2.41
 _ZN10IOActivity5resetEv@Base 2.41
 _ZN10IOActivityC1EP7DbeView@Base 2.41
 _ZN10IOActivityC2EP7DbeView@Base 2.41
 _ZN10LoadObject10read_stabsEv@Base 2.41
 _ZN10LoadObject10status_strENS_11Arch_statusEPc@Base 2.41
 _ZN10LoadObject11create_itemEPKcS1_P7DbeFile@Base 2.41
 (arch=!x32)_ZN10LoadObject11create_itemEPKcl@Base 2.41
 (arch=i386 x32)_ZN10LoadObject11create_itemEPKcx@Base 2.41
 _ZN10LoadObject11find_moduleEPc@Base 2.41
 _ZN10LoadObject12func_compareEPKvS1_@Base 2.41
 _ZN10LoadObject12get_checksumEv@Base 2.41
 _ZN10LoadObject12read_archiveEv@Base 2.41
 _ZN10LoadObject12set_platformE10Platform_ti@Base 2.41
 _ZN10LoadObject13append_moduleEP6Module@Base 2.41
 (arch=!x32)_ZN10LoadObject13find_dbeinstrEm@Base 2.41
 (arch=i386 x32)_ZN10LoadObject13find_dbeinstrEy@Base 2.41
 _ZN10LoadObject13find_functionEPc@Base 2.41
 _ZN10LoadObject13find_functionEPcj@Base 2.41
 (arch=!x32)_ZN10LoadObject13find_functionEm@Base 2.41
 (arch=i386 x32)_ZN10LoadObject13find_functionEy@Base 2.41
 _ZN10LoadObject13openDebugInfoEPcPN5Stabs11Stab_statusE@Base 2.41
 _ZN10LoadObject14dump_functionsEP8_IO_FILE@Base 2.41
 _ZN10LoadObject14get_hide_instrEP8DbeInstr@Base 2.41
 _ZN10LoadObject15sync_read_stabsEv@Base 2.41
 _ZN10LoadObject17get_hide_functionEv@Base 2.41
 _ZN10LoadObject19get_comparable_objsEv@Base 2.41
 _ZN10LoadObject21get_comparable_ModuleEP6Module@Base 2.41
 _ZN10LoadObject22post_process_functionsEv@Base 2.41
 _ZN10LoadObject7compareEPKcS1_P7DbeFile@Base 2.41
 (arch=!x32)_ZN10LoadObject7compareEPKcl@Base 2.41
 (arch=i386 x32)_ZN10LoadObject7compareEPKcx@Base 2.41
 _ZN10LoadObject7get_elfEv@Base 2.41
 _ZN10LoadObject8get_addrEv@Base 2.41
 (arch=!x32)_ZN10LoadObject8get_sizeEv@Base 2.41
 (arch=!x32)_ZN10LoadObject8get_typeEv@Base 2.41
 _ZN10LoadObject8set_nameEPc@Base 2.41
 _ZN10LoadObject9get_aliasEP8Function@Base 2.41
 _ZN10LoadObject9get_indexEP8Function@Base 2.41
 _ZN10LoadObjectC1EPKc@Base 2.41
 _ZN10LoadObjectC2EPKc@Base 2.41
 _ZN10LoadObjectD0Ev@Base 2.41
 _ZN10LoadObjectD1Ev@Base 2.41
 _ZN10LoadObjectD2Ev@Base 2.41
 _ZN10MetricList11find_metricEPcN10BaseMetric7SubTypeE@Base 2.41
 _ZN10MetricList11get_metricsEv@Base 2.41
 _ZN10MetricList11set_metricsEPKcbP14DerivedMetrics@Base 2.41
 _ZN10MetricList11set_metricsEPS_@Base 2.41
 _ZN10MetricList12get_sort_cmdEv@Base 2.41
 _ZN10MetricList13get_listorderEP6Metric@Base 2.41
 _ZN10MetricList13get_listorderEPcN10BaseMetric7SubTypeEPKc@Base 2.41
 _ZN10MetricList13get_sort_nameEv@Base 2.41
 _ZN10MetricList15get_sort_metricEv@Base 2.41
 _ZN10MetricList15set_sort_metricEPcN10BaseMetric7SubTypeEb@Base 2.41
 _ZN10MetricList17parse_metric_specEPcPN10BaseMetric7SubTypeEPiS4_Pb@Base 2.41
 _ZN10MetricList17print_metric_listEP8_IO_FILEPci@Base 2.41
 _ZN10MetricList17set_fallback_sortEv@Base 2.41
 _ZN10MetricList19find_metric_by_nameEPc@Base 2.41
 _ZN10MetricList21add_matching_dmetricsEP6VectorIP10BaseMetricEPcPNS1_7SubTypeEiib@Base 2.41
 _ZN10MetricList6appendEP10BaseMetricNS0_7SubTypeEi@Base 2.41
 _ZN10MetricList8set_sortEPKcb@Base 2.41
 _ZN10MetricList8set_sortEib@Base 2.41
 _ZN10MetricListC1E10MetricType@Base 2.41
 _ZN10MetricListC1EP6VectorIP10BaseMetricE10MetricType@Base 2.41
 _ZN10MetricListC1EPS_@Base 2.41
 _ZN10MetricListC2E10MetricType@Base 2.41
 _ZN10MetricListC2EP6VectorIP10BaseMetricE10MetricType@Base 2.41
 _ZN10MetricListC2EPS_@Base 2.41
 _ZN10MetricListD1Ev@Base 2.41
 _ZN10MetricListD2Ev@Base 2.41
 _ZN10PreviewExp10mqueue_strEP9EmsgqueuePc@Base 2.41
 _ZN10PreviewExp12preview_infoEv@Base 2.41
 _ZN10PreviewExp15experiment_openEPc@Base 2.41
 _ZN10PreviewExpC1Ev@Base 2.41
 _ZN10PreviewExpC2Ev@Base 2.41
 _ZN10PreviewExpD0Ev@Base 2.41
 _ZN10PreviewExpD1Ev@Base 2.41
 _ZN10PreviewExpD2Ev@Base 2.41
 _ZN10SAXParserP10scanStringEPKc@Base 2.41
 _ZN10SAXParserP11parseStringEv@Base 2.41
 _ZN10SAXParserP11skipWSpacesEv@Base 2.41
 _ZN10SAXParserP12decodeStringEPc@Base 2.41
 (arch=!x32)_ZN10SAXParserP12isValidatingEv@Base 2.41
 _ZN10SAXParserP13parseDocumentEv@Base 2.41
 _ZN10SAXParserP15parseAttributesEv@Base 2.41
 (arch=!x32)_ZN10SAXParserP16isNamespaceAwareEv@Base 2.41
 _ZN10SAXParserP5parseEP4FileP14DefaultHandler@Base 2.41
 _ZN10SAXParserP5resetEv@Base 2.41
 _ZN10SAXParserP6nextchEv@Base 2.41
 _ZN10SAXParserP8isWSpaceEv@Base 2.41
 _ZN10SAXParserP8parseTagEv@Base 2.41
 _ZN10SAXParserP9parseNameEv@Base 2.41
 _ZN10SAXParserPC1Ev@Base 2.41
 _ZN10SAXParserPC2Ev@Base 2.41
 _ZN10SAXParserPD0Ev@Base 2.41
 _ZN10SAXParserPD1Ev@Base 2.41
 _ZN10SAXParserPD2Ev@Base 2.41
 _ZN10SourceFile10readSourceEv@Base 2.41
 _ZN10SourceFile12find_dbelineEP8Functioni@Base 2.41
 _ZN10SourceFile13get_functionsEv@Base 2.41
 _ZN10SourceFile5curIdE@Base 2.41
 _ZN10SourceFile7getLineEi@Base 2.41
 _ZN10SourceFile8get_nameEN8Histable10NameFormatE@Base 2.41
 (arch=!x32)_ZN10SourceFile8get_typeEv@Base 2.41
 _ZN10SourceFile8set_nameEPc@Base 2.41
 _ZN10SourceFileC1EPKc@Base 2.41
 _ZN10SourceFileC2EPKc@Base 2.41
 _ZN10SourceFileD0Ev@Base 2.41
 _ZN10SourceFileD1Ev@Base 2.41
 _ZN10SourceFileD2Ev@Base 2.41
 _ZN10StabReader11parse_N_OPTEP6ModulePc@Base 2.41
 _ZN10StabReader13get_type_nameEi@Base 2.41
 _ZN10StabReader8get_stabEP4stabb@Base 2.41
 _ZN10StabReaderC1EP3Elf10Platform_tii@Base 2.41
 _ZN10StabReaderC2EP3Elf10Platform_tii@Base 2.41
 _ZN10Stats_data12compute_dataEv@Base 2.41
 _ZN10Stats_data12fetchPrUsageEl@Base 2.41
 _ZN10Stats_data17create_stats_itemExPc@Base 2.41
 _ZN10Stats_data3sumEPS_@Base 2.41
 _ZN10Stats_data4sizeEv@Base 2.41
 _ZN10Stats_data5fetchEi@Base 2.41
 _ZN10Stats_dataC1EP8DataView@Base 2.41
 _ZN10Stats_dataC1Ev@Base 2.41
 _ZN10Stats_dataC2EP8DataView@Base 2.41
 _ZN10Stats_dataC2Ev@Base 2.41
 _ZN10Stats_dataD1Ev@Base 2.41
 _ZN10Stats_dataD2Ev@Base 2.41
 _ZN10definitionC1Ev@Base 2.41
 _ZN10definitionC2Ev@Base 2.41
 _ZN10definitionD1Ev@Base 2.41
 _ZN10definitionD2Ev@Base 2.41
 _ZN11Application10check_argsEiPPc@Base 2.41
 _ZN11Application11get_cur_dirEv@Base 2.41
 _ZN11Application11set_run_dirEPc@Base 2.41
 _ZN11Application12get_realpathEPKc@Base 2.41
 _ZN11Application12set_progressEiPKc@Base 2.41
 _ZN11Application13progress_funcE@Base 2.41
 _ZN11Application13queue_commentEP4Emsg@Base 2.41
 _ZN11Application14fetch_commentsEv@Base 2.41
 _ZN11Application15delete_commentsEv@Base 2.41
 _ZN11Application18print_version_infoEv@Base 2.41
 _ZN11Application28get_number_of_worker_threadsEv@Base 2.41
 _ZN11Application8set_nameEPKc@Base 2.41
 _ZN11ApplicationC1EiPPcS0_@Base 2.41
 _ZN11ApplicationC2EiPPcS0_@Base 2.41
 _ZN11ApplicationD0Ev@Base 2.41
 _ZN11ApplicationD1Ev@Base 2.41
 _ZN11ApplicationD2Ev@Base 2.41
 _ZN11AttributesP6appendEPcS0_@Base 2.41
 _ZN11AttributesP8getIndexEPKc@Base 2.41
 _ZN11AttributesP8getQNameEi@Base 2.41
 _ZN11AttributesP8getValueEPKc@Base 2.41
 _ZN11AttributesP8getValueEi@Base 2.41
 _ZN11AttributesP9getLengthEv@Base 2.41
 _ZN11AttributesPC1Ev@Base 2.41
 _ZN11AttributesPC2Ev@Base 2.41
 _ZN11AttributesPD0Ev@Base 2.41
 _ZN11AttributesPD1Ev@Base 2.41
 _ZN11AttributesPD2Ev@Base 2.41
 _ZN11CStack_data11CStack_itemC1El@Base 2.41
 _ZN11CStack_data11CStack_itemC2El@Base 2.41
 _ZN11CStack_data11CStack_itemD1Ev@Base 2.41
 _ZN11CStack_data11CStack_itemD2Ev@Base 2.41
 _ZN11CStack_data15new_cstack_itemEv@Base 2.41
 _ZN11CStack_dataC1EP10MetricList@Base 2.41
 _ZN11CStack_dataC2EP10MetricList@Base 2.41
 _ZN11CompComment12compcom_openEPFiPcE@Base 2.41
 _ZN11CompComment14compcom_formatEiP7compmsgRi@Base 2.41
 _ZN11CompComment17get_demangle_nameEPc@Base 2.41
 (arch=!x32)_ZN11CompComment9get_alignEli@Base 2.41
 (arch=i386 x32)_ZN11CompComment9get_alignExi@Base 2.41
 _ZN11CompCommentC1EP3Elfi@Base 2.41
 _ZN11CompCommentC2EP3Elfi@Base 2.41
 _ZN11CompCommentD1Ev@Base 2.41
 _ZN11CompCommentD2Ev@Base 2.41
 (arch=!x32)_ZN11Data_window12copy_to_fileEill@Base 2.41
 (arch=i386 x32)_ZN11Data_window12copy_to_fileEixx@Base 2.41
 _ZN11Data_window12get_buf_sizeEv@Base 2.41
 (arch=!x32)_ZN11Data_window4bindEPNS_4SpanEl@Base 2.41
 (arch=i386 x32)_ZN11Data_window4bindEPNS_4SpanEx@Base 2.41
 (arch=!x32)_ZN11Data_window4bindEll@Base 2.41
 (arch=i386 x32)_ZN11Data_window4bindExx@Base 2.41
 (arch=!x32)_ZN11Data_window8get_dataEllPv@Base 2.41
 (arch=i386 x32)_ZN11Data_window8get_dataExxPv@Base 2.41
 _ZN11Data_windowC1EPc@Base 2.41
 _ZN11Data_windowC2EPc@Base 2.41
 _ZN11Data_windowD1Ev@Base 2.41
 _ZN11Data_windowD2Ev@Base 2.41
 (optional=templinst|arch=!x32)_ZN11DbeCacheMapIy7JMethodE3getEy@Base 2.41
 (optional=templinst|arch=!x32)_ZN11DbeCacheMapIy7JMethodE3getEyN3MapIyPS0_E8RelationE@Base 2.41
 (optional=templinst|arch=!x32)_ZN11DbeCacheMapIy7JMethodE3putEyPS0_@Base 2.41
 (optional=templinst|arch=!x32)_ZN11DbeCacheMapIy7JMethodE6removeEy@Base 2.41
 (optional=templinst|arch=!x32)_ZN11DbeCacheMapIy7JMethodED0Ev@Base 2.41
 (optional=templinst|arch=!x32)_ZN11DbeCacheMapIy7JMethodED1Ev@Base 2.41
 (optional=templinst|arch=!x32)_ZN11DbeCacheMapIy7JMethodED2Ev@Base 2.41
 _ZN11DbeMessages10append_msgE9Cmsg_warnPKcz@Base 2.41
 _ZN11DbeMessages10remove_msgEP4Emsg@Base 2.41
 _ZN11DbeMessages11append_msgsEP6VectorIP4EmsgE@Base 2.41
 _ZN11DbeMessages9get_errorEv@Base 2.41
 _ZN11DbeMessagesC1Ev@Base 2.41
 _ZN11DbeMessagesC2Ev@Base 2.41
 _ZN11DbeMessagesD1Ev@Base 2.41
 _ZN11DbeMessagesD2Ev@Base 2.41
 _ZN11Descendants4findEP8HistablePi@Base 2.41
 _ZN11Descendants6appendEP13CallStackNode@Base 2.41
 _ZN11Descendants6insertEiP13CallStackNode@Base 2.41
 _ZN11DescendantsC1Ev@Base 2.41
 _ZN11DescendantsC2Ev@Base 2.41
 _ZN11DescendantsD1Ev@Base 2.41
 _ZN11DescendantsD2Ev@Base 2.41
 _ZN11DwrFileNameC1EPc@Base 2.41
 _ZN11DwrFileNameC2EPc@Base 2.41
 _ZN11DwrFileNameD1Ev@Base 2.41
 _ZN11DwrFileNameD2Ev@Base 2.41
 _ZN11DwrLineRegs15DoSpecialOpcodeEi@Base 2.41
 _ZN11DwrLineRegs16DoExtendedOpcodeEv@Base 2.41
 _ZN11DwrLineRegs16DoStandardOpcodeEi@Base 2.41
 _ZN11DwrLineRegs22read_file_names_dwarf5Ev@Base 2.41
 _ZN11DwrLineRegs4dumpEv@Base 2.41
 _ZN11DwrLineRegs5resetEv@Base 2.41
 _ZN11DwrLineRegs7getPathEi@Base 2.41
 _ZN11DwrLineRegs8EmitLineEv@Base 2.41
 _ZN11DwrLineRegs9get_linesEv@Base 2.41
 _ZN11DwrLineRegsC1EP5DwarfP6DwrSecPc@Base 2.41
 _ZN11DwrLineRegsC2EP5DwarfP6DwrSecPc@Base 2.41
 _ZN11DwrLineRegsD1Ev@Base 2.41
 _ZN11DwrLineRegsD2Ev@Base 2.41
 _ZN11IndexObject20requires_string_sortEv@Base 2.41
 _ZN11IndexObject21set_name_from_contextEPN10Expression7ContextE@Base 2.41
 (arch=!x32)_ZN11IndexObject8get_addrEv@Base 2.41
 _ZN11IndexObject8get_nameEN8Histable10NameFormatE@Base 2.41
 (arch=!x32)_ZN11IndexObject8get_typeEv@Base 2.41
 _ZN11IndexObject8set_nameEPc@Base 2.41
 _ZN11IndexObject9converttoEN8Histable4TypeEPS0_@Base 2.41
 _ZN11IndexObjectC1EiP8Histable@Base 2.41
 (arch=!x32)_ZN11IndexObjectC1Eim@Base 2.41
 (arch=i386 x32)_ZN11IndexObjectC1Eiy@Base 2.41
 _ZN11IndexObjectC2EiP8Histable@Base 2.41
 (arch=!x32)_ZN11IndexObjectC2Eim@Base 2.41
 (arch=i386 x32)_ZN11IndexObjectC2Eiy@Base 2.41
 (arch=!x32)_ZN11IndexObjectD0Ev@Base 2.41
 (arch=!x32)_ZN11IndexObjectD1Ev@Base 2.41
 (arch=!x32)_ZN11IndexObjectD2Ev@Base 2.41
 (optional=templinst|arch=!x32)_ZN11IntervalMapIxPvE3getEx@Base 2.41
 (optional=templinst|arch=!x32)_ZN11IntervalMapIxPvE3getExN3MapIxS0_E8RelationE@Base 2.41
 (optional=templinst|arch=!x32)_ZN11IntervalMapIxPvE3putExS0_@Base 2.41
 (optional=templinst|arch=!x32)_ZN11IntervalMapIxPvE6removeEx@Base 2.41
 (optional=templinst|arch=!x32)_ZN11IntervalMapIxPvED0Ev@Base 2.41
 (optional=templinst|arch=!x32)_ZN11IntervalMapIxPvED1Ev@Base 2.41
 (optional=templinst|arch=!x32)_ZN11IntervalMapIxPvED2Ev@Base 2.41
 (optional=templinst|arch=!x32)_ZN11IntervalMapIxmE3getEx@Base 2.41
 (optional=templinst|arch=!x32)_ZN11IntervalMapIxmE3getExN3MapIxmE8RelationE@Base 2.41
 (optional=templinst|arch=!x32)_ZN11IntervalMapIxmE3putExm@Base 2.41
 (optional=templinst|arch=!x32)_ZN11IntervalMapIxmE6removeEx@Base 2.41
 (optional=templinst|arch=!x32)_ZN11IntervalMapIxmED0Ev@Base 2.41
 (optional=templinst|arch=!x32)_ZN11IntervalMapIxmED1Ev@Base 2.41
 (optional=templinst|arch=!x32)_ZN11IntervalMapIxmED2Ev@Base 2.41
 (optional=templinst|arch=i386)_ZN11IntervalMapIxyE3getEx@Base 2.41
 (optional=templinst|arch=i386)_ZN11IntervalMapIxyE3getExN3MapIxyE8RelationE@Base 2.41
 (optional=templinst|arch=i386)_ZN11IntervalMapIxyE3putExy@Base 2.41
 (optional=templinst|arch=i386)_ZN11IntervalMapIxyE6removeEx@Base 2.41
 (optional=templinst|arch=i386)_ZN11IntervalMapIxyED0Ev@Base 2.41
 (optional=templinst|arch=i386)_ZN11IntervalMapIxyED1Ev@Base 2.41
 (optional=templinst|arch=i386)_ZN11IntervalMapIxyED2Ev@Base 2.41
 _ZN11MemorySpace11mobj_defineEPcS0_S0_S0_S0_@Base 2.41
 _ZN11MemorySpace11mobj_deleteEPc@Base 2.41
 _ZN11MemorySpace12pickMnemonicEPc@Base 2.41
 (arch=!x32)_ZN11MemorySpace13findMemObjectEm@Base 2.41
 (arch=i386 x32)_ZN11MemorySpace13findMemObjectEy@Base 2.41
 _ZN11MemorySpace13getMemObjectsEv@Base 2.41
 (arch=!x32)_ZN11MemorySpace15createMemObjectEmPc@Base 2.41
 (arch=i386 x32)_ZN11MemorySpace15createMemObjectEyPc@Base 2.41
 _ZN11MemorySpace15lookupMemObjectEP10ExperimentP8DataViewl@Base 2.41
 _ZN11MemorySpace15set_MemTabOrderEP6VectorIiE@Base 2.41
 _ZN11MemorySpace18findMemSpaceByNameEPKc@Base 2.41
 _ZN11MemorySpace19findMemSpaceByIndexEi@Base 2.41
 _ZN11MemorySpace19get_filter_keywordsEP6VectorIPvE@Base 2.41
 _ZN11MemorySpace22getMachineModelMemObjsEPc@Base 2.41
 _ZN11MemorySpace5resetEv@Base 2.41
 _ZN11MemorySpaceC1EP7DbeViewi@Base 2.41
 _ZN11MemorySpaceC2EP7DbeViewi@Base 2.41
 _ZN11MemorySpaceD1Ev@Base 2.41
 _ZN11MemorySpaceD2Ev@Base 2.41
 _ZN12CommonPacket10getStackPCEi5VMode@Base 2.41
 _ZN12CommonPacket11getStackPCsE5VMode@Base 2.41
 _ZN12CommonPacket12jvm_overheadE@Base 2.41
 _ZN12CommonPacket3cmpEPKvS1_@Base 2.41
 _ZN12CommonPacket8getStackE5VMode@Base 2.41
 _ZN12CommonPacketC1Ev@Base 2.41
 _ZN12CommonPacketC2Ev@Base 2.41
 (optional=templinst|arch=!x32)_ZN12DefaultMap2DIjxPvE3getEjx@Base 2.41
 (optional=templinst|arch=!x32)_ZN12DefaultMap2DIjxPvE3getEjxN5Map2DIjxS0_E8RelationE@Base 2.41
 (optional=templinst|arch=!x32)_ZN12DefaultMap2DIjxPvE3putEjxS0_@Base 2.41
 (optional=templinst|arch=!x32)_ZN12DefaultMap2DIjxPvE6removeEjx@Base 2.41
 (optional=templinst|arch=!x32)_ZN12DefaultMap2DIjxPvEC1EN5Map2DIjxS0_E7MapTypeE@Base 2.41
 (optional=templinst|arch=!x32)_ZN12DefaultMap2DIjxPvEC2EN5Map2DIjxS0_E7MapTypeE@Base 2.41
 (optional=templinst|arch=!x32)_ZN12DefaultMap2DIjxPvED0Ev@Base 2.41
 (optional=templinst|arch=!x32)_ZN12DefaultMap2DIjxPvED1Ev@Base 2.41
 (optional=templinst|arch=!x32)_ZN12DefaultMap2DIjxPvED2Ev@Base 2.41
 (optional=templinst|arch=!x32)_ZN12DefaultMap2DIjxmE3getEjx@Base 2.41
 (optional=templinst|arch=!x32)_ZN12DefaultMap2DIjxmE3getEjxN5Map2DIjxmE8RelationE@Base 2.41
 (optional=templinst|arch=!x32)_ZN12DefaultMap2DIjxmE3putEjxm@Base 2.41
 (optional=templinst|arch=!x32)_ZN12DefaultMap2DIjxmE6removeEjx@Base 2.41
 (optional=templinst|arch=!x32)_ZN12DefaultMap2DIjxmEC1EN5Map2DIjxmE7MapTypeE@Base 2.41
 (optional=templinst|arch=!x32)_ZN12DefaultMap2DIjxmEC2EN5Map2DIjxmE7MapTypeE@Base 2.41
 (optional=templinst|arch=!x32)_ZN12DefaultMap2DIjxmED0Ev@Base 2.41
 (optional=templinst|arch=!x32)_ZN12DefaultMap2DIjxmED1Ev@Base 2.41
 (optional=templinst|arch=!x32)_ZN12DefaultMap2DIjxmED2Ev@Base 2.41
 (optional=templinst|arch=i386)_ZN12DefaultMap2DIjxyE3getEjx@Base 2.41
 (optional=templinst|arch=i386)_ZN12DefaultMap2DIjxyE3getEjxN5Map2DIjxyE8RelationE@Base 2.41
 (optional=templinst|arch=i386)_ZN12DefaultMap2DIjxyE3putEjxy@Base 2.41
 (optional=templinst|arch=i386)_ZN12DefaultMap2DIjxyE6removeEjx@Base 2.41
 (optional=templinst|arch=i386)_ZN12DefaultMap2DIjxyEC1EN5Map2DIjxyE7MapTypeE@Base 2.41
 (optional=templinst|arch=i386)_ZN12DefaultMap2DIjxyEC2EN5Map2DIjxyE7MapTypeE@Base 2.41
 (optional=templinst|arch=i386)_ZN12DefaultMap2DIjxyED0Ev@Base 2.41
 (optional=templinst|arch=i386)_ZN12DefaultMap2DIjxyED1Ev@Base 2.41
 (optional=templinst|arch=i386)_ZN12DefaultMap2DIjxyED2Ev@Base 2.41
 _ZN12HeapActivity15computeHistDataEP9Hist_dataP10MetricListNS0_4ModeEP8Histable@Base 2.41
 _ZN12HeapActivity15compute_metricsEP10MetricListN8Histable4TypeEN9Hist_data4ModeEPS2_@Base 2.41
 _ZN12HeapActivity16computeCallStackEN8Histable4TypeE5VMode@Base 2.41
 _ZN12HeapActivity17computeHistTotalsEP9Hist_dataP10MetricList@Base 2.41
 _ZN12HeapActivity20createHistItemTotalsEP9Hist_dataP10MetricListN8Histable4TypeEb@Base 2.41
 _ZN12HeapActivity5resetEv@Base 2.41
 _ZN12HeapActivityC1EP7DbeView@Base 2.41
 _ZN12HeapActivityC2EP7DbeView@Base 2.41
 _ZN12HistableFileC1Ev@Base 2.41
 _ZN12HistableFileC2Ev@Base 2.41
 _ZN12MemObjType_tC1Ev@Base 2.41
 _ZN12MemObjType_tC2Ev@Base 2.41
 _ZN12MemObjType_tD1Ev@Base 2.41
 _ZN12MemObjType_tD2Ev@Base 2.41
 _ZN12SAXException10getMessageEv@Base 2.41
 _ZN12SAXExceptionC1EPKc@Base 2.41
 _ZN12SAXExceptionC1Ev@Base 2.41
 _ZN12SAXExceptionC2EPKc@Base 2.41
 _ZN12SAXExceptionC2Ev@Base 2.41
 _ZN12SAXExceptionD0Ev@Base 2.41
 _ZN12SAXExceptionD1Ev@Base 2.41
 _ZN12SAXExceptionD2Ev@Base 2.41
 _ZN13CallStackNode4dumpEv@Base 2.41
 _ZN13CallStackNode7compareEllP6VectorIP8HistableEPS_@Base 2.41
 _ZN13CallStackNodeC1EPS_P8Histable@Base 2.41
 _ZN13CallStackNodeC2EPS_P8Histable@Base 2.41
 _ZN13CallStackNodeD1Ev@Base 2.41
 _ZN13CallStackNodeD2Ev@Base 2.41
 _ZN13DbeThreadPool11wait_queuesEv@Base 2.41
 _ZN13DbeThreadPool9get_queueEv@Base 2.41
 _ZN13DbeThreadPool9put_queueEP8DbeQueue@Base 2.41
 _ZN13DbeThreadPoolC1Ei@Base 2.41
 _ZN13DbeThreadPoolC2Ei@Base 2.41
 _ZN13DbeThreadPoolD1Ev@Base 2.41
 _ZN13DbeThreadPoolD2Ev@Base 2.41
 _ZN13FilterNumeric10get_statusEv@Base 2.41
 _ZN13FilterNumeric11get_patternEv@Base 2.41
 (arch=!x32)_ZN13FilterNumeric11is_selectedEm@Base 2.41
 (arch=i386 x32)_ZN13FilterNumeric11is_selectedEy@Base 2.41
 _ZN13FilterNumeric11set_patternEPcPb@Base 2.41
 _ZN13FilterNumeric12update_rangeEv@Base 2.41
 (arch=!x32)_ZN13FilterNumeric13include_rangeEmm@Base 2.41
 (arch=i386 x32)_ZN13FilterNumeric13include_rangeEyy@Base 2.41
 _ZN13FilterNumeric13update_statusEv@Base 2.41
 _ZN13FilterNumeric15get_next_numberEPcPS0_Pb@Base 2.41
 _ZN13FilterNumeric19get_advanced_filterEv@Base 2.41
 (arch=!x32)_ZN13FilterNumeric9set_rangeEmmm@Base 2.41
 (arch=i386 x32)_ZN13FilterNumeric9set_rangeEyyy@Base 2.41
 _ZN13FilterNumericC1EP10ExperimentPKcS3_@Base 2.41
 _ZN13FilterNumericC2EP10ExperimentPKcS3_@Base 2.41
 _ZN13FilterNumericD1Ev@Base 2.41
 _ZN13FilterNumericD2Ev@Base 2.41
 _ZN13StringBuilder10trimToSizeEv@Base 2.41
 _ZN13StringBuilder11lastIndexOfEPKc@Base 2.41
 _ZN13StringBuilder11lastIndexOfEPKci@Base 2.41
 _ZN13StringBuilder12deleteCharAtEi@Base 2.41
 _ZN13StringBuilder14ensureCapacityEi@Base 2.41
 _ZN13StringBuilder14expandCapacityEi@Base 2.41
 _ZN13StringBuilder4trimEv@Base 2.41
 _ZN13StringBuilder5writeEi@Base 2.41
 _ZN13StringBuilder6appendEPKc@Base 2.41
 _ZN13StringBuilder6appendEPKcii@Base 2.41
 _ZN13StringBuilder6appendEPS_@Base 2.41
 _ZN13StringBuilder6appendEb@Base 2.41
 _ZN13StringBuilder6appendEc@Base 2.41
 _ZN13StringBuilder6appendEd@Base 2.41
 _ZN13StringBuilder6appendEf@Base 2.41
 _ZN13StringBuilder6appendEi@Base 2.41
 _ZN13StringBuilder6appendEj@Base 2.41
 _ZN13StringBuilder6appendEl@Base 2.41
 _ZN13StringBuilder6appendEm@Base 2.41
 _ZN13StringBuilder6appendEx@Base 2.41
 _ZN13StringBuilder6appendEy@Base 2.41
 _ZN13StringBuilder6charAtEi@Base 2.41
 _ZN13StringBuilder6insertEiPKc@Base 2.41
 _ZN13StringBuilder6insertEiPKcii@Base 2.41
 _ZN13StringBuilder6insertEib@Base 2.41
 _ZN13StringBuilder6insertEic@Base 2.41
 _ZN13StringBuilder6insertEid@Base 2.41
 _ZN13StringBuilder6insertEif@Base 2.41
 _ZN13StringBuilder6insertEii@Base 2.41
 _ZN13StringBuilder6insertEil@Base 2.41
 _ZN13StringBuilder6toFileEP8_IO_FILE@Base 2.41
 _ZN13StringBuilder7_deleteEii@Base 2.41
 _ZN13StringBuilder7appendfEPKcz@Base 2.41
 _ZN13StringBuilder7indexOfEPKc@Base 2.41
 _ZN13StringBuilder7indexOfEPKci@Base 2.41
 _ZN13StringBuilder7reverseEv@Base 2.41
 _ZN13StringBuilder7sprintfEPKcz@Base 2.41
 _ZN13StringBuilder8endsWithEPKc@Base 2.41
 _ZN13StringBuilder8getCharsEiiPci@Base 2.41
 _ZN13StringBuilder8toFileLnEP8_IO_FILE@Base 2.41
 _ZN13StringBuilder8toStringEv@Base 2.41
 _ZN13StringBuilder9setCharAtEic@Base 2.41
 _ZN13StringBuilder9setLengthEi@Base 2.41
 _ZN13StringBuilderC1Ei@Base 2.41
 _ZN13StringBuilderC1Ev@Base 2.41
 _ZN13StringBuilderC2Ei@Base 2.41
 _ZN13StringBuilderC2Ev@Base 2.41
 _ZN13StringBuilderD0Ev@Base 2.41
 _ZN13StringBuilderD1Ev@Base 2.41
 _ZN13StringBuilderD2Ev@Base 2.41
 _ZN14DataDescriptor10createViewEv@Base 2.41
 _ZN14DataDescriptor11addPropertyEP9PropDescr@Base 2.41
 _ZN14DataDescriptor11getIntValueEil@Base 2.41
 _ZN14DataDescriptor11getObjValueEil@Base 2.41
 _ZN14DataDescriptor11setObjValueEilPv@Base 2.41
 _ZN14DataDescriptor12getLongValueEil@Base 2.41
 _ZN14DataDescriptor13getULongValueEil@Base 2.41
 _ZN14DataDescriptor13setDatumValueEilPK5Datum@Base 2.41
 _ZN14DataDescriptor19createImmutableViewEv@Base 2.41
 _ZN14DataDescriptor20createExtManagedViewEv@Base 2.41
 _ZN14DataDescriptor5resetEv@Base 2.41
 _ZN14DataDescriptor6getSetEi@Base 2.41
 _ZN14DataDescriptor7getDataEi@Base 2.41
 _ZN14DataDescriptor7getPropEi@Base 2.41
 (arch=!x32)_ZN14DataDescriptor8setValueEilm@Base 2.41
 (arch=i386 x32)_ZN14DataDescriptor8setValueEily@Base 2.41
 _ZN14DataDescriptor9addRecordEv@Base 2.41
 _ZN14DataDescriptorC1EiPKcS1_PS_@Base 2.41
 _ZN14DataDescriptorC1EiPKcS1_i@Base 2.41
 _ZN14DataDescriptorC2EiPKcS1_PS_@Base 2.41
 _ZN14DataDescriptorC2EiPKcS1_i@Base 2.41
 _ZN14DataDescriptorD1Ev@Base 2.41
 _ZN14DataDescriptorD2Ev@Base 2.41
 _ZN14DbeApplication15initApplicationEPcS0_PFiiPKcE@Base 2.41
 _ZN14DbeApplicationC1EiPPcS0_@Base 2.41
 _ZN14DbeApplicationC2EiPPcS0_@Base 2.41
 _ZN14DbeApplicationD0Ev@Base 2.41
 _ZN14DbeApplicationD1Ev@Base 2.41
 _ZN14DbeApplicationD2Ev@Base 2.41
 (arch=!x32)_ZN14DefaultHandler10fatalErrorEP17SAXParseException@Base 2.41
 _ZN14DefaultHandler17dump_startElementEPKcP10Attributes@Base 2.41
 (arch=!x32)_ZN14DefaultHandler5errorEP17SAXParseException@Base 2.41
 (arch=!x32)_ZN14DefaultHandler7warningEP17SAXParseException@Base 2.41
 _ZN14DerivedMetrics13construct_mapEP6VectorIP6MetricEN10BaseMetric7SubTypeEPc@Base 2.41
 _ZN14DerivedMetrics13eval_one_itemEP10definitionPiPd@Base 2.41
 _ZN14DerivedMetrics14add_definitionEPcS0_S0_@Base 2.41
 _ZN14DerivedMetrics16get_dependenciesEP10definition@Base 2.41
 _ZN14DerivedMetrics17fill_dependenciesEP10definitionPi@Base 2.41
 _ZN14DerivedMetrics4dumpEP8_IO_FILEi@Base 2.41
 _ZN14DerivedMetrics4evalEPiPd@Base 2.41
 _ZN14DerivedMetricsC1Ev@Base 2.41
 _ZN14DerivedMetricsC2Ev@Base 2.41
 _ZN14DerivedMetricsD1Ev@Base 2.41
 _ZN14DerivedMetricsD2Ev@Base 2.41
 _ZN14DwrInlinedSubr4dumpEv@Base 2.41
 (arch=!x32)_ZN14DwrInlinedSubrC1Elmmiii@Base 2.41
 (arch=i386 x32)_ZN14DwrInlinedSubrC1Exyyiii@Base 2.41
 (arch=!x32)_ZN14DwrInlinedSubrC2Elmmiii@Base 2.41
 (arch=i386 x32)_ZN14DwrInlinedSubrC2Exyyiii@Base 2.41
 _ZN14IndexObjType_tC1Ev@Base 2.41
 _ZN14IndexObjType_tC2Ev@Base 2.41
 _ZN14IndexObjType_tD1Ev@Base 2.41
 _ZN14IndexObjType_tD2Ev@Base 2.41
 _ZN14er_print_ctree14print_childrenEP9Hist_dataiP8HistablePcPNS0_8HistItemE@Base 2.41
 _ZN14er_print_ctree9data_dumpEv@Base 2.41
 _ZN14er_print_ctreeC1EP7DbeViewP6VectorIP8HistableES4_i@Base 2.41
 _ZN14er_print_ctreeC2EP7DbeViewP6VectorIP8HistableES4_i@Base 2.41
 (arch=!x32)_ZN14er_print_ctreeD0Ev@Base 2.41
 (arch=!x32)_ZN14er_print_ctreeD1Ev@Base 2.41
 (arch=!x32)_ZN14er_print_ctreeD2Ev@Base 2.41
 _ZN14er_print_gprof9data_dumpEv@Base 2.41
 _ZN14er_print_gprofC1EP7DbeViewP6VectorIP8HistableE@Base 2.41
 _ZN14er_print_gprofC2EP7DbeViewP6VectorIP8HistableE@Base 2.41
 (arch=!x32)_ZN14er_print_gprofD0Ev@Base 2.41
 (arch=!x32)_ZN14er_print_gprofD1Ev@Base 2.41
 (arch=!x32)_ZN14er_print_gprofD2Ev@Base 2.41
 _ZN16PacketDescriptor8addFieldEP10FieldDescr@Base 2.41
 _ZN16PacketDescriptorC1EP14DataDescriptor@Base 2.41
 _ZN16PacketDescriptorC2EP14DataDescriptor@Base 2.41
 _ZN16PacketDescriptorD0Ev@Base 2.41
 _ZN16PacketDescriptorD1Ev@Base 2.41
 _ZN16PacketDescriptorD2Ev@Base 2.41
 _ZN16SAXParserFactory11newInstanceEv@Base 2.41
 _ZN16SAXParserFactory21DEFAULT_PROPERTY_NAMEE@Base 2.41
 _ZN17SAXParseExceptionC1EPcii@Base 2.41
 _ZN17SAXParseExceptionC2EPcii@Base 2.41
 (arch=!x32)_ZN17SAXParseExceptionD0Ev@Base 2.41
 (arch=!x32)_ZN17SAXParseExceptionD1Ev@Base 2.41
 (arch=!x32)_ZN17SAXParseExceptionD2Ev@Base 2.41
 (arch=!x32)_ZN17SAXParserFactoryP10getFeatureEPKc@Base 2.41
 (arch=!x32)_ZN17SAXParserFactoryP10setFeatureEPKcb@Base 2.41
 _ZN17SAXParserFactoryP12newSAXParserEv@Base 2.41
 (arch=!x32)_ZN17SAXParserFactoryPD0Ev@Base 2.41
 (arch=!x32)_ZN17SAXParserFactoryPD1Ev@Base 2.41
 (arch=!x32)_ZN17SAXParserFactoryPD2Ev@Base 2.41
 _ZN17er_print_leaklist9data_dumpEv@Base 2.41
 _ZN17er_print_leaklistC1EP7DbeViewbbi@Base 2.41
 _ZN17er_print_leaklistC2EP7DbeViewbbi@Base 2.41
 (arch=!x32)_ZN17er_print_leaklistD0Ev@Base 2.41
 (arch=!x32)_ZN17er_print_leaklistD1Ev@Base 2.41
 (arch=!x32)_ZN17er_print_leaklistD2Ev@Base 2.41
 _ZN18BaseMetricTreeNode13register_nodeEPS_@Base 2.41
 _ZN18BaseMetricTreeNode15get_descriptionEv@Base 2.41
 _ZN18BaseMetricTreeNode15register_metricEP10BaseMetric@Base 2.41
 _ZN18BaseMetricTreeNode16build_basic_treeEv@Base 2.41
 _ZN18BaseMetricTreeNode30get_all_registered_descendentsEP6VectorIPS_E@Base 2.41
 _ZN18BaseMetricTreeNode34get_nearest_registered_descendentsEP6VectorIPS_E@Base 2.41
 _ZN18BaseMetricTreeNode4dumpEv@Base 2.41
 _ZN18BaseMetricTreeNode4findEPKc@Base 2.41
 _ZN18BaseMetricTreeNode9add_childEP10BaseMetric@Base 2.41
 _ZN18BaseMetricTreeNode9add_childEPKcS1_S1_S1_@Base 2.41
 _ZN18BaseMetricTreeNode9add_childEPS_@Base 2.41
 _ZN18BaseMetricTreeNode9init_varsEv@Base 2.41
 _ZN18BaseMetricTreeNodeC1EP10BaseMetric@Base 2.41
 _ZN18BaseMetricTreeNodeC1EPKcS1_S1_S1_@Base 2.41
 _ZN18BaseMetricTreeNodeC1Ev@Base 2.41
 _ZN18BaseMetricTreeNodeC2EP10BaseMetric@Base 2.41
 _ZN18BaseMetricTreeNodeC2EPKcS1_S1_S1_@Base 2.41
 _ZN18BaseMetricTreeNodeC2Ev@Base 2.41
 _ZN18BaseMetricTreeNodeD0Ev@Base 2.41
 _ZN18BaseMetricTreeNodeD1Ev@Base 2.41
 _ZN18BaseMetricTreeNodeD2Ev@Base 2.41
 _ZN18BinaryConstantPool11getTypeNameEi@Base 2.41
 _ZN18BinaryConstantPool13offset_to_strEx@Base 2.41
 _ZN18BinaryConstantPool16type_name_to_strEi@Base 2.41
 _ZN18BinaryConstantPool9getStringEi@Base 2.41
 _ZN18BinaryConstantPoolC1ER15DataInputStream@Base 2.41
 _ZN18BinaryConstantPoolC2ER15DataInputStream@Base 2.41
 _ZN18BinaryConstantPoolD1Ev@Base 2.41
 _ZN18BinaryConstantPoolD2Ev@Base 2.41
 _ZN18er_print_histogram10dump_gprofEi@Base 2.41
 _ZN18er_print_histogram11dump_detailEi@Base 2.41
 _ZN18er_print_histogram14dump_annotatedEv@Base 2.41
 _ZN18er_print_histogram26dump_annotated_dataobjectsEP6VectorIiEi@Base 2.41
 _ZN18er_print_histogram9data_dumpEv@Base 2.41
 _ZN18er_print_histogram9dump_listEi@Base 2.41
 _ZN18er_print_histogramC1EP7DbeViewP9Hist_dataP10MetricList10Print_modeiPcP8Histablebb@Base 2.41
 _ZN18er_print_histogramC2EP7DbeViewP9Hist_dataP10MetricList10Print_modeiPcP8Histablebb@Base 2.41
 (arch=!x32)_ZN18er_print_histogramD0Ev@Base 2.41
 (arch=!x32)_ZN18er_print_histogramD1Ev@Base 2.41
 (arch=!x32)_ZN18er_print_histogramD2Ev@Base 2.41
 _ZN19er_print_experiment12overview_sumERi@Base 2.41
 _ZN19er_print_experiment13overview_dumpEiRi@Base 2.41
 _ZN19er_print_experiment13overview_itemEPN8Ovw_data8Ovw_itemES2_@Base 2.41
 _ZN19er_print_experiment14overview_valueEP5Value8ValueTagd@Base 2.41
 _ZN19er_print_experiment14statistics_sumERi@Base 2.41
 _ZN19er_print_experiment15statistics_dumpEiRi@Base 2.41
 _ZN19er_print_experiment15statistics_itemEP10Stats_data@Base 2.41
 _ZN19er_print_experiment16overview_summaryEP8Ovw_dataRi@Base 2.41
 _ZN19er_print_experiment9data_dumpEv@Base 2.41
 _ZN19er_print_experimentC1EP7DbeViewiibbbbb@Base 2.41
 _ZN19er_print_experimentC2EP7DbeViewiibbbbb@Base 2.41
 (arch=!x32)_ZN19er_print_experimentD0Ev@Base 2.41
 (arch=!x32)_ZN19er_print_experimentD1Ev@Base 2.41
 (arch=!x32)_ZN19er_print_experimentD2Ev@Base 2.41
 _ZN19er_print_ioactivity15printCallStacksEP9Hist_data@Base 2.41
 _ZN19er_print_ioactivity15printStatisticsEP9Hist_data@Base 2.41
 _ZN19er_print_ioactivity9data_dumpEv@Base 2.41
 _ZN19er_print_ioactivityC1EP7DbeViewN8Histable4TypeEbi@Base 2.41
 _ZN19er_print_ioactivityC2EP7DbeViewN8Histable4TypeEbi@Base 2.41
 (arch=!x32)_ZN19er_print_ioactivityD0Ev@Base 2.41
 (arch=!x32)_ZN19er_print_ioactivityD1Ev@Base 2.41
 (arch=!x32)_ZN19er_print_ioactivityD2Ev@Base 2.41
 _ZN21er_print_heapactivity15printCallStacksEP9Hist_data@Base 2.41
 _ZN21er_print_heapactivity15printStatisticsEP9Hist_data@Base 2.41
 _ZN21er_print_heapactivity9data_dumpEv@Base 2.41
 _ZN21er_print_heapactivityC1EP7DbeViewN8Histable4TypeEbi@Base 2.41
 _ZN21er_print_heapactivityC2EP7DbeViewN8Histable4TypeEbi@Base 2.41
 (arch=!x32)_ZN21er_print_heapactivityD0Ev@Base 2.41
 (arch=!x32)_ZN21er_print_heapactivityD1Ev@Base 2.41
 (arch=!x32)_ZN21er_print_heapactivityD2Ev@Base 2.41
 _ZN23er_print_common_display10get_outputEi@Base 2.41
 _ZN23er_print_common_display11header_dumpEi@Base 2.41
 _ZN23er_print_common_display12print_outputEv@Base 2.41
 _ZN23er_print_common_display4openEP12Print_params@Base 2.41
 (optional=templinst|arch=!x32)_ZN2QL6Parser10value_type2asIP10ExpressionEERT_v@Base 2.41
 (optional=templinst|arch=!x32)_ZN2QL6Parser10value_type4moveINSt7__cxx1112basic_stringIcSt11char_traitsIcESaIcEEEEEvOS1_@Base 2.41
 (arch=!x32)_ZN2QL6Parser10value_typeD1Ev@Base 2.41
 (arch=!x32)_ZN2QL6Parser10value_typeD2Ev@Base 2.41
 _ZN2QL6Parser10yydefgoto_E@Base 2.41
 (optional=templinst|arch=!x32)_ZN2QL6Parser12basic_symbolINS0_7by_kindEE5clearEv@Base 2.41
 (optional=templinst|arch=!x32)_ZN2QL6Parser12basic_symbolINS0_7by_kindEEC1EOS3_@Base 2.41
 (optional=templinst|arch=!x32)_ZN2QL6Parser12basic_symbolINS0_7by_kindEEC2EOS3_@Base 2.41
 (optional=templinst|arch=!x32)_ZN2QL6Parser12basic_symbolINS0_8by_stateEE5clearEv@Base 2.41
 _ZN2QL6Parser12syntax_errorD0Ev@Base 2.41
 _ZN2QL6Parser12syntax_errorD1Ev@Base 2.41
 _ZN2QL6Parser12syntax_errorD2Ev@Base 2.41
 _ZN2QL6Parser12yypact_ninf_E@Base 2.41
 _ZN2QL6Parser13yytable_ninf_E@Base 2.41
 _ZN2QL6Parser17stack_symbol_typeC1EOS1_@Base 2.41
 _ZN2QL6Parser17stack_symbol_typeC1EaONS0_11symbol_typeE@Base 2.41
 _ZN2QL6Parser17stack_symbol_typeC1Ev@Base 2.41
 _ZN2QL6Parser17stack_symbol_typeC2EOS1_@Base 2.41
 _ZN2QL6Parser17stack_symbol_typeC2EaONS0_11symbol_typeE@Base 2.41
 _ZN2QL6Parser17stack_symbol_typeC2Ev@Base 2.41
 _ZN2QL6Parser17yy_lr_goto_state_Eai@Base 2.41
 _ZN2QL6Parser24yy_table_value_is_error_Ei@Base 2.41
 _ZN2QL6Parser25yy_pact_value_is_default_Ei@Base 2.41
 _ZN2QL6Parser5errorERKNS0_12syntax_errorE@Base 2.41
 _ZN2QL6Parser5errorERKNSt7__cxx1112basic_stringIcSt11char_traitsIcESaIcEEE@Base 2.41
 _ZN2QL6Parser5parseEv@Base 2.41
 _ZN2QL6Parser5yyr1_E@Base 2.41
 _ZN2QL6Parser5yyr2_E@Base 2.41
 _ZN2QL6Parser6yypop_Ei@Base 2.41
 _ZN2QL6Parser7yypact_E@Base 2.41
 _ZN2QL6Parser7yypush_EPKcONS0_17stack_symbol_typeE@Base 2.41
 _ZN2QL6Parser7yypush_EPKcaONS0_11symbol_typeE@Base 2.41
 _ZN2QL6Parser7yystos_E@Base 2.41
 _ZN2QL6Parser8by_state4moveERS1_@Base 2.41
 _ZN2QL6Parser8by_state5clearEv@Base 2.41
 _ZN2QL6Parser8by_stateC1ERKS1_@Base 2.41
 _ZN2QL6Parser8by_stateC1Ea@Base 2.41
 _ZN2QL6Parser8by_stateC1Ev@Base 2.41
 _ZN2QL6Parser8by_stateC2ERKS1_@Base 2.41
 _ZN2QL6Parser8by_stateC2Ea@Base 2.41
 _ZN2QL6Parser8by_stateC2Ev@Base 2.41
 _ZN2QL6Parser8yycheck_E@Base 2.41
 _ZN2QL6Parser8yypgoto_E@Base 2.41
 _ZN2QL6Parser8yytable_E@Base 2.41
 _ZN2QL6Parser9yydefact_E@Base 2.41
 _ZN2QL6ParserC1ERNS_6ResultE@Base 2.41
 _ZN2QL6ParserC2ERNS_6ResultE@Base 2.41
 _ZN2QL6ParserD0Ev@Base 2.41
 _ZN2QL6ParserD1Ev@Base 2.41
 _ZN2QL6ParserD2Ev@Base 2.41
 _ZN2QL6ParserclEv@Base 2.41
 (arch=!x32)_ZN2QL6ResultD1Ev@Base 2.41
 (arch=!x32)_ZN2QL6ResultD2Ev@Base 2.41
 _ZN3Elf10bfd_statusE@Base 2.41
 _ZN3Elf10elf_getdynEP17elf_internal_phdrjP11S_Elf64_Dyn@Base 2.41
 _ZN3Elf10elf_getrelEP8Elf_DatajP17elf_internal_rela@Base 2.41
 _ZN3Elf10elf_getsymEP8Elf_DatajP16elf_internal_sym@Base 2.41
 (arch=!x32)_ZN3Elf10elf_strptrEjm@Base 2.41
 (arch=i386 x32)_ZN3Elf10elf_strptrEjy@Base 2.41
 _ZN3Elf11elf_getdataEj@Base 2.41
 _ZN3Elf11elf_getehdrEv@Base 2.41
 _ZN3Elf11elf_getrelaEP8Elf_DatajP17elf_internal_rela@Base 2.41
 _ZN3Elf11elf_versionEj@Base 2.41
 _ZN3Elf12dump_elf_secEv@Base 2.41
 _ZN3Elf12elf_checksumEv@Base 2.41
 _ZN3Elf12get_baseAddrEv@Base 2.41
 _ZN3Elf12get_locationEv@Base 2.41
 _ZN3Elf12get_sec_nameEj@Base 2.41
 _ZN3Elf15elf_get_sec_numEPKc@Base 2.41
 _ZN3Elf16elf_getancillaryEP8Elf_DatajP17S_Elf64_Ancillary@Base 2.41
 _ZN3Elf16get_related_fileEPKcS1_@Base 2.41
 _ZN3Elf20find_ancillary_filesEPc@Base 2.41
 _ZN3Elf4dumpEv@Base 2.41
 _ZN3Elf8elf_initEv@Base 2.41
 _ZN3Elf8get_phdrEj@Base 2.41
 _ZN3Elf8get_shdrEj@Base 2.41
 _ZN3Elf9elf_beginEPcPNS_10Elf_statusE@Base 2.41
 _ZN3ElfC1EPc@Base 2.41
 _ZN3ElfC2EPc@Base 2.41
 _ZN3ElfD1Ev@Base 2.41
 _ZN3ElfD2Ev@Base 2.41
 (optional=templinst|arch=!x32)_ZN3MapImP13CallStackNodeE6keySetEv@Base 2.41
 (optional=templinst|arch=!x32)_ZN3MapImP13CallStackNodeE6valuesEv@Base 2.41
 (optional=templinst|arch=!x32)_ZN3MapImlE6keySetEv@Base 2.41
 (optional=templinst|arch=!x32)_ZN3MapImlE6valuesEv@Base 2.41
 (optional=templinst|arch=!x32)_ZN3MapImmE6keySetEv@Base 2.41
 (optional=templinst|arch=!x32)_ZN3MapImmE6valuesEv@Base 2.41
 (optional=templinst|arch=!x32)_ZN3MapIxPvE6keySetEv@Base 2.41
 (optional=templinst|arch=!x32)_ZN3MapIxPvE6valuesEv@Base 2.41
 (optional=templinst|arch=!x32)_ZN3MapIxmE6keySetEv@Base 2.41
 (optional=templinst|arch=!x32)_ZN3MapIxmE6valuesEv@Base 2.41
 (optional=templinst|arch=i386)_ZN3MapIxyE6keySetEv@Base 2.41
 (optional=templinst|arch=i386)_ZN3MapIxyE6valuesEv@Base 2.41
 (optional=templinst|arch=i386)_ZN3MapIyP13CallStackNodeE6keySetEv@Base 2.41
 (optional=templinst|arch=i386)_ZN3MapIyP13CallStackNodeE6valuesEv@Base 2.41
 (optional=templinst|arch=!x32)_ZN3MapIyP7JMethodE6keySetEv@Base 2.41
 (optional=templinst|arch=!x32)_ZN3MapIyP7JMethodE6valuesEv@Base 2.41
 (optional=templinst|arch=i386)_ZN3MapIylE6keySetEv@Base 2.41
 (optional=templinst|arch=i386)_ZN3MapIylE6valuesEv@Base 2.41
 (optional=templinst|arch=i386)_ZN3MapIyyE6keySetEv@Base 2.41
 (optional=templinst|arch=i386)_ZN3MapIyyE6valuesEv@Base 2.41
 _ZN4Data7newDataE10VType_type@Base 2.41
 _ZN4EmsgC1E9Cmsg_warnPKc@Base 2.41
 _ZN4EmsgC1E9Cmsg_warnR13StringBuilder@Base 2.41
 _ZN4EmsgC1E9Cmsg_warniPKc@Base 2.41
 _ZN4EmsgC2E9Cmsg_warnPKc@Base 2.41
 _ZN4EmsgC2E9Cmsg_warnR13StringBuilder@Base 2.41
 _ZN4EmsgC2E9Cmsg_warniPKc@Base 2.41
 _ZN4EmsgD1Ev@Base 2.41
 _ZN4EmsgD2Ev@Base 2.41
 (arch=!x32)_ZN5DbeEA8get_addrEv@Base 2.41
 _ZN5DbeEA8get_nameEN8Histable10NameFormatE@Base 2.41
 (arch=!x32)_ZN5DbeEA8get_sizeEv@Base 2.41
 (arch=!x32)_ZN5DbeEA8get_typeEv@Base 2.41
 _ZN5DbeEA9converttoEN8Histable4TypeEPS0_@Base 2.41
 (arch=!x32)_ZN5DbeEAD0Ev@Base 2.41
 (arch=!x32)_ZN5DbeEAD1Ev@Base 2.41
 (arch=!x32)_ZN5DbeEAD2Ev@Base 2.41
 _ZN5Dwarf13archive_DwarfEP10LoadObject@Base 2.41
 _ZN5Dwarf13srcline_DwarfEP6Module@Base 2.41
 _ZN5Dwarf17read_hwcprof_infoEP6Module@Base 2.41
 _ZN5Dwarf9dwrGetSecEPKc@Base 2.41
 _ZN5DwarfC1EP5Stabs@Base 2.41
 _ZN5DwarfC2EP5Stabs@Base 2.41
 _ZN5DwarfD1Ev@Base 2.41
 _ZN5DwarfD2Ev@Base 2.41
 _ZN5DwrCU10Dwarf_addrEt@Base 2.41
 _ZN5DwrCU10Dwarf_dataEt@Base 2.41
 _ZN5DwrCU10Dwarf_langEv@Base 2.41
 _ZN5DwrCU10get_low_pcEv@Base 2.41
 _ZN5DwrCU10parseChildEP9Dwarf_cnt@Base 2.41
 _ZN5DwrCU11Dwarf_blockEt@Base 2.41
 (arch=!x32)_ZN5DwrCU11get_high_pcEm@Base 2.41
 (arch=i386 x32)_ZN5DwrCU11get_high_pcEy@Base 2.41
 _ZN5DwrCU12Dwarf_stringEt@Base 2.41
 (arch=!x32)_ZN5DwrCU13read_ref_attrEtPl@Base 2.41
 (arch=i386 x32)_ZN5DwrCU13read_ref_attrEtPx@Base 2.41
 _ZN5DwrCU14Dwarf_locationEi@Base 2.41
 _ZN5DwrCU14get_dwrLineRegEv@Base 2.41
 (arch=!x32)_ZN5DwrCU14read_data_attrEtPl@Base 2.41
 (arch=i386 x32)_ZN5DwrCU14read_data_attrEtPx@Base 2.41
 _ZN5DwrCU15append_FunctionEP9Dwarf_cnt@Base 2.41
 _ZN5DwrCU15map_dwarf_linesEP6Module@Base 2.41
 _ZN5DwrCU15parse_cu_headerEP10LoadObject@Base 2.41
 _ZN5DwrCU16dwr_get_locationEP6DwrSecP11DwrLocation@Base 2.41
 _ZN5DwrCU16get_linkage_nameEv@Base 2.41
 (arch=!x32)_ZN5DwrCU17build_abbrevTableEP6DwrSecm@Base 2.41
 (arch=i386 x32)_ZN5DwrCU17build_abbrevTableEP6DwrSecy@Base 2.41
 _ZN5DwrCU17read_hwcprof_infoEP9Dwarf_cnt@Base 2.41
 _ZN5DwrCU24parse_inlined_subroutineEP9Dwarf_cnt@Base 2.41
 _ZN5DwrCU6at2strEi@Base 2.41
 (arch=!x32)_ZN5DwrCU7set_dieEl@Base 2.41
 (arch=i386 x32)_ZN5DwrCU7set_dieEx@Base 2.41
 _ZN5DwrCU7tag2strEi@Base 2.41
 _ZN5DwrCU8form2strEi@Base 2.41
 _ZN5DwrCU8lnct2strEi@Base 2.41
 _ZN5DwrCU9Dwarf_refEt@Base 2.41
 _ZN5DwrCUC1EP5Dwarf@Base 2.41
 _ZN5DwrCUC2EP5Dwarf@Base 2.41
 _ZN5DwrCUD1Ev@Base 2.41
 _ZN5DwrCUD2Ev@Base 2.41
 (arch=!x32)_ZN5Other8get_typeEv@Base 2.41
 (arch=!x32)_ZN5OtherD0Ev@Base 2.41
 (arch=!x32)_ZN5OtherD1Ev@Base 2.41
 (arch=!x32)_ZN5OtherD2Ev@Base 2.41
 _ZN5RelocC1Ev@Base 2.41
 _ZN5RelocC2Ev@Base 2.41
 _ZN5RelocD1Ev@Base 2.41
 _ZN5RelocD2Ev@Base 2.41
 _ZN5Stabs10check_CommEP6VectorIP4ComCE@Base 2.41
 _ZN5Stabs10check_InfoEP6VectorIP4ComCE@Base 2.41
 _ZN5Stabs10check_LoopEP6VectorIP4ComCE@Base 2.41
 _ZN5Stabs10readSymSecEjP3Elf@Base 2.41
 (arch=!x32)_ZN5Stabs10read_stabsEmP6ModuleP6VectorIP4ComCEb@Base 2.41
 (arch=i386 x32)_ZN5Stabs10read_stabsEyP6ModuleP6VectorIP4ComCEb@Base 2.41
 _ZN5Stabs12check_RelocsEv@Base 2.41
 _ZN5Stabs12check_SymtabEv@Base 2.41
 _ZN5Stabs12read_archiveEP10LoadObject@Base 2.41
 _ZN5Stabs12read_symbolsEP6VectorIP8FunctionE@Base 2.41
 _ZN5Stabs13append_ModuleEP10LoadObjectPci@Base 2.41
 _ZN5Stabs13archive_StabsEP10LoadObjectjjb@Base 2.41
 _ZN5Stabs13get_save_addrEb@Base 2.41
 (arch=!x32)_ZN5Stabs13map_PC_to_symEm@Base 2.41
 (arch=i386 x32)_ZN5Stabs13map_PC_to_symEy@Base 2.41
 _ZN5Stabs13srcline_StabsEP6Modulejjb@Base 2.41
 _ZN5Stabs14createFunctionEP10LoadObjectP6ModuleP6Symbol@Base 2.41
 _ZN5Stabs14fixSymtabAliasEv@Base 2.41
 (arch=!x32)_ZN5Stabs14map_PC_to_funcEmRmP6VectorIP8FunctionE@Base 2.41
 (arch=i386 x32)_ZN5Stabs14map_PC_to_funcEyRyP6VectorIP8FunctionE@Base 2.41
 _ZN5Stabs15append_FunctionEP6ModulePc@Base 2.41
 (arch=!x32)_ZN5Stabs15append_FunctionEP6ModulePcm@Base 2.41
 (arch=i386 x32)_ZN5Stabs15append_FunctionEP6ModulePcy@Base 2.41
 _ZN5Stabs15get_elf_symbolsEv@Base 2.41
 _ZN5Stabs17read_hwcprof_infoEP6Module@Base 2.41
 _ZN5Stabs18append_local_funcsEP6Modulei@Base 2.41
 _ZN5Stabs18check_AnalyzerInfoEv@Base 2.41
 (arch=!x32)_ZN5Stabs18mapOffsetToAddressEm@Base 2.41
 (arch=i386 x32)_ZN5Stabs18mapOffsetToAddressEy@Base 2.41
 _ZN5Stabs21read_dwarf_from_dot_oEP6Module@Base 2.41
 _ZN5Stabs4dumpEv@Base 2.41
 _ZN5Stabs7openElfEPcRNS_11Stab_statusE@Base 2.41
 _ZN5Stabs7openElfEb@Base 2.41
 _ZN5Stabs8NewStabsEPcS0_@Base 2.41
 (arch=!x32)_ZN5Stabs8sym_nameEmmi@Base 2.41
 (arch=i386 x32)_ZN5Stabs8sym_nameEyyi@Base 2.41
 _ZN5Stabs9find_funcEPcP6VectorIP8FunctionEbb@Base 2.41
 _ZN5Stabs9openDwarfEv@Base 2.41
 _ZN5StabsC1EPcS0_@Base 2.41
 _ZN5StabsC2EPcS0_@Base 2.41
 _ZN5StabsD1Ev@Base 2.41
 _ZN5StabsD2Ev@Base 2.41
 (arch=!x32)_ZN6Disasm10get_disasmEmmmmRl@Base 2.41
 (arch=i386 x32)_ZN6Disasm10get_disasmEyyyyRx@Base 2.41
 _ZN6Disasm11disasm_openEv@Base 2.41
 (arch=!x32)_ZN6Disasm12set_addr_endEm@Base 2.41
 (arch=i386 x32)_ZN6Disasm12set_addr_endEy@Base 2.41
 _ZN6Disasm12set_img_nameEPc@Base 2.41
 _ZN6Disasm18remove_disasm_hndlEPv@Base 2.41
 _ZN6DisasmC1E10Platform_tP5Stabs@Base 2.41
 _ZN6DisasmC1EPc@Base 2.41
 _ZN6DisasmC2E10Platform_tP5Stabs@Base 2.41
 _ZN6DisasmC2EPc@Base 2.41
 _ZN6DisasmD1Ev@Base 2.41
 _ZN6DisasmD2Ev@Base 2.41
 _ZN6DwrSec10GetADDR_32Ev@Base 2.41
 _ZN6DwrSec10GetADDR_64Ev@Base 2.41
 _ZN6DwrSec10GetSLEB128Ev@Base 2.41
 _ZN6DwrSec10GetULEB128Ev@Base 2.41
 _ZN6DwrSec10ReadLengthEv@Base 2.41
 (arch=!x32)_ZN6DwrSec16bounds_violationEm@Base 2.41
 (arch=i386 x32)_ZN6DwrSec16bounds_violationEy@Base 2.41
 _ZN6DwrSec4dumpEPc@Base 2.41
 _ZN6DwrSec5Get_8Ev@Base 2.41
 _ZN6DwrSec6GetRefEv@Base 2.41
 _ZN6DwrSec6Get_16Ev@Base 2.41
 _ZN6DwrSec6Get_24Ev@Base 2.41
 _ZN6DwrSec6Get_32Ev@Base 2.41
 _ZN6DwrSec6Get_64Ev@Base 2.41
 _ZN6DwrSec7GetADDREv@Base 2.41
 (arch=!x32)_ZN6DwrSec7GetDataEm@Base 2.41
 (arch=i386 x32)_ZN6DwrSec7GetDataEy@Base 2.41
 _ZN6DwrSec7GetLongEv@Base 2.41
 _ZN6DwrSec9GetStringEv@Base 2.41
 _ZN6DwrSec9get_valueEi@Base 2.41
 (arch=!x32)_ZN6DwrSecC1EPS_m@Base 2.41
 (arch=i386 x32)_ZN6DwrSecC1EPS_y@Base 2.41
 (arch=!x32)_ZN6DwrSecC1EPhmbb@Base 2.41
 (arch=i386 x32)_ZN6DwrSecC1EPhybb@Base 2.41
 (arch=!x32)_ZN6DwrSecC2EPS_m@Base 2.41
 (arch=i386 x32)_ZN6DwrSecC2EPS_y@Base 2.41
 (arch=!x32)_ZN6DwrSecC2EPhmbb@Base 2.41
 (arch=i386 x32)_ZN6DwrSecC2EPhybb@Base 2.41
 _ZN6DwrSecD1Ev@Base 2.41
 _ZN6DwrSecD2Ev@Base 2.41
 (arch=!x32)_ZN6MemObj8get_addrEv@Base 2.41
 (arch=!x32)_ZN6MemObj8get_nameEN8Histable10NameFormatE@Base 2.41
 (arch=!x32)_ZN6MemObj8get_typeEv@Base 2.41
 _ZN6MemObj9converttoEN8Histable4TypeEPS0_@Base 2.41
 (arch=!x32)_ZN6MemObjC1EmPc@Base 2.41
 (arch=i386 x32)_ZN6MemObjC1EyPc@Base 2.41
 (arch=!x32)_ZN6MemObjC2EmPc@Base 2.41
 (arch=i386 x32)_ZN6MemObjC2EyPc@Base 2.41
 _ZN6MemObjD0Ev@Base 2.41
 _ZN6MemObjD1Ev@Base 2.41
 _ZN6MemObjD2Ev@Base 2.41
 _ZN6Metric10get_vtype2Ev@Base 2.41
 _ZN6Metric11HistMetricS10update_maxEPS0_@Base 2.41
 _ZN6Metric11HistMetricS4initEv@Base 2.41
 _ZN6Metric11get_vis_strEv@Base 2.41
 _ZN6Metric11set_subtypeEN10BaseMetric7SubTypeE@Base 2.41
 _ZN6Metric12legend_widthEPNS_11HistMetricSEi@Base 2.41
 _ZN6Metric12set_pvisibleEb@Base 2.41
 _ZN6Metric12set_tvisibleEb@Base 2.41
 _ZN6Metric12set_vvisibleEb@Base 2.41
 _ZN6Metric14get_vis_stringEi@Base 2.41
 _ZN6Metric16get_real_visbitsEv@Base 2.41
 _ZN6Metric20set_dmetrics_visbitsEi@Base 2.41
 _ZN6Metric4dumpEv@Base 2.41
 _ZN6Metric8get_mcmdEb@Base 2.41
 _ZN6MetricC1EP10BaseMetricNS0_7SubTypeE@Base 2.41
 _ZN6MetricC1ERKS_@Base 2.41
 _ZN6MetricC2EP10BaseMetricNS0_7SubTypeE@Base 2.41
 _ZN6MetricC2ERKS_@Base 2.41
 _ZN6MetricD0Ev@Base 2.41
 _ZN6MetricD1Ev@Base 2.41
 _ZN6MetricD2Ev@Base 2.41
 _ZN6Module10findSourceEPKcb@Base 2.41
 (arch=!x32)_ZN6Module10get_disasmEmmmmRl@Base 2.41
 (arch=i386 x32)_ZN6Module10get_disasmEyyyyRx@Base 2.41
 _ZN6Module10is_fortranEv@Base 2.41
 _ZN6Module10read_stabsEb@Base 2.41
 _ZN6Module10set_ComComEi@Base 2.41
 _ZN6Module11set_MPSlaveEv@Base 2.41
 _ZN6Module12find_jmethodEPKcS1_@Base 2.41
 _ZN6Module12set_dis_dataEP8Functioniiibbi@Base 2.41
 _ZN6Module12set_src_dataEP8Functioniii@Base 2.41
 _ZN6Module13openDebugInfoEv@Base 2.41
 _ZN6Module14checkTimeStampEb@Base 2.41
 _ZN6Module14computeMetricsEP7DbeViewP8FunctionP10MetricListN8Histable4TypeEbbP10SourceFile@Base 2.41
 _ZN6Module14removeStabsTmpEv@Base 2.41
 _ZN6Module14setIncludeFileEPc@Base 2.41
 _ZN6Module15reset_datatypesEv@Base 2.41
 _ZN6Module16createLoadObjectEPKc@Base 2.41
 _ZN6Module16dump_dataobjectsEP8_IO_FILE@Base 2.41
 _ZN6Module17read_hwcprof_infoEv@Base 2.41
 _ZN6Module19get_comparable_objsEv@Base 2.41
 _ZN6Module7read_arEiiPc@Base 2.41
 _ZN6Module7setFileEv@Base 2.41
 _ZN6Module7set_disEP8DbeInstrNS_10Anno_TypesEbPc@Base 2.41
 _ZN6Module7set_oneEPN9Hist_data8HistItemENS_10Anno_TypesEPKc@Base 2.41
 _ZN6Module7set_srcENS_10Anno_TypesEP7DbeLine@Base 2.41
 _ZN6Module8anno_strEPc@Base 2.41
 _ZN6Module8getAddrsEP8Function@Base 2.41
 _ZN6Module8get_dataEP7DbeViewP10MetricListN8Histable4TypeEP6TValueP10SourceFileP8FunctionP6VectorIiEiiibbbPSC_I10int_pair_tESH_@Base 2.41
 _ZN6Module8get_dobjEj@Base 2.41
 _ZN6Module8get_sizeEv@Base 2.41
 (arch=!x32)_ZN6Module8get_typeEv@Base 2.41
 _ZN6Module8readFileEv@Base 2.41
 _ZN6Module8set_nameEPc@Base 2.41
 _ZN6Module9init_lineEv@Base 2.41
 _ZN6Module9openDisPCEv@Base 2.41
 _ZN6Module9openStabsEb@Base 2.41
 _ZN6ModuleC1Ev@Base 2.41
 _ZN6ModuleC2Ev@Base 2.41
 _ZN6ModuleD0Ev@Base 2.41
 _ZN6ModuleD1Ev@Base 2.41
 _ZN6ModuleD2Ev@Base 2.41
 _ZN6Sample14validate_usageEv@Base 2.41
 _ZN6Sample9get_usageEv@Base 2.41
 _ZN6SampleC1Ei@Base 2.41
 _ZN6SampleC2Ei@Base 2.41
 _ZN6SampleD1Ev@Base 2.41
 _ZN6SampleD2Ev@Base 2.41
 _ZN6Symbol4dumpEP6VectorIPS_EPc@Base 2.41
 _ZN6SymbolC1EP6VectorIPS_E@Base 2.41
 _ZN6SymbolC2EP6VectorIPS_E@Base 2.41
 _ZN6TValue10make_deltaEPS_S0_@Base 2.41
 _ZN6TValue10make_ratioEPS_S0_@Base 2.41
 _ZN6TValue6to_intEv@Base 2.41
 (arch=i386 x32)_ZN6TValue6to_strEPcj@Base 2.41
 (arch=!x32)_ZN6TValue6to_strEPcm@Base 2.41
 _ZN6TValue7compareEPS_@Base 2.41
 _ZN6TValue7get_lenEv@Base 2.41
 _ZN6TValue9to_doubleEv@Base 2.41
 (optional=templinst|arch=!x32)_ZN6VectorI10int_pair_tE4dumpEPKc@Base 2.41
 (optional=templinst|arch=!x32)_ZN6VectorI10int_pair_tE4typeEv@Base 2.41
 (optional=templinst|arch=!x32)_ZN6VectorI10int_pair_tE6appendES0_@Base 2.41
 (optional=templinst|arch=!x32)_ZN6VectorI10int_pair_tED0Ev@Base 2.41
 (optional=templinst|arch=!x32)_ZN6VectorI10int_pair_tED1Ev@Base 2.41
 (optional=templinst|arch=!x32)_ZN6VectorI10int_pair_tED2Ev@Base 2.41
 (optional=templinst|arch=!x32)_ZN6VectorI11cpf_stabs_tE4dumpEPKc@Base 2.41
 (optional=templinst|arch=!x32)_ZN6VectorI11cpf_stabs_tE4typeEv@Base 2.41
 (optional=templinst|arch=!x32)_ZN6VectorI11cpf_stabs_tED0Ev@Base 2.41
 (optional=templinst|arch=!x32)_ZN6VectorI11cpf_stabs_tED1Ev@Base 2.41
 (optional=templinst|arch=!x32)_ZN6VectorI11cpf_stabs_tED2Ev@Base 2.41
 (optional=templinst|arch=!x32)_ZN6VectorI9Aggr_typeE4dumpEPKc@Base 2.41
 (optional=templinst|arch=!x32)_ZN6VectorI9Aggr_typeE4typeEv@Base 2.41
 (optional=templinst|arch=!x32)_ZN6VectorI9Aggr_typeE6appendES0_@Base 2.41
 (optional=templinst|arch=!x32)_ZN6VectorI9Aggr_typeED0Ev@Base 2.41
 (optional=templinst|arch=!x32)_ZN6VectorI9Aggr_typeED1Ev@Base 2.41
 (optional=templinst|arch=!x32)_ZN6VectorI9Aggr_typeED2Ev@Base 2.41
 (optional=templinst|arch=!x32)_ZN6VectorI9LibExpandE4dumpEPKc@Base 2.41
 (optional=templinst|arch=!x32)_ZN6VectorI9LibExpandE4typeEv@Base 2.41
 (optional=templinst|arch=!x32)_ZN6VectorI9LibExpandE5storeElS0_@Base 2.41
 (optional=templinst|arch=!x32)_ZN6VectorI9LibExpandED0Ev@Base 2.41
 (optional=templinst|arch=!x32)_ZN6VectorI9LibExpandED1Ev@Base 2.41
 (optional=templinst|arch=!x32)_ZN6VectorI9LibExpandED2Ev@Base 2.41
 (optional=templinst|arch=!x32)_ZN6VectorIN10Experiment17ExperimentHandler7ElementEE4dumpEPKc@Base 2.41
 (optional=templinst|arch=!x32)_ZN6VectorIN10Experiment17ExperimentHandler7ElementEE4typeEv@Base 2.41
 (optional=templinst|arch=!x32)_ZN6VectorIN10Experiment17ExperimentHandler7ElementEED0Ev@Base 2.41
 (optional=templinst|arch=!x32)_ZN6VectorIN10Experiment17ExperimentHandler7ElementEED1Ev@Base 2.41
 (optional=templinst|arch=!x32)_ZN6VectorIN10Experiment17ExperimentHandler7ElementEED2Ev@Base 2.41
 (optional=templinst|arch=!x32)_ZN6VectorIP10BaseMetricE4dumpEPKc@Base 2.41
 (optional=templinst|arch=!x32)_ZN6VectorIP10BaseMetricE4typeEv@Base 2.41
 (optional=templinst|arch=!x32)_ZN6VectorIP10BaseMetricE6appendES1_@Base 2.41
 (optional=templinst|arch=!x32)_ZN6VectorIP10BaseMetricED0Ev@Base 2.41
 (optional=templinst|arch=!x32)_ZN6VectorIP10BaseMetricED1Ev@Base 2.41
 (optional=templinst|arch=!x32)_ZN6VectorIP10BaseMetricED2Ev@Base 2.41
 (optional=templinst|arch=!x32)_ZN6VectorIP10DataObjectE4dumpEPKc@Base 2.41
 (optional=templinst|arch=!x32)_ZN6VectorIP10DataObjectE4typeEv@Base 2.41
 (optional=templinst|arch=!x32)_ZN6VectorIP10DataObjectE6appendES1_@Base 2.41
 (optional=templinst|arch=!x32)_ZN6VectorIP10DataObjectED0Ev@Base 2.41
 (optional=templinst|arch=!x32)_ZN6VectorIP10DataObjectED1Ev@Base 2.41
 (optional=templinst|arch=!x32)_ZN6VectorIP10DataObjectED2Ev@Base 2.41
 (optional=templinst|arch=!x32)_ZN6VectorIP10DbeJarFileE4dumpEPKc@Base 2.41
 (optional=templinst|arch=!x32)_ZN6VectorIP10DbeJarFileE4typeEv@Base 2.41
 (optional=templinst|arch=!x32)_ZN6VectorIP10DbeJarFileED0Ev@Base 2.41
 (optional=templinst|arch=!x32)_ZN6VectorIP10DbeJarFileED1Ev@Base 2.41
 (optional=templinst|arch=!x32)_ZN6VectorIP10DbeJarFileED2Ev@Base 2.41
 (optional=templinst|arch=!x32)_ZN6VectorIP10DefaultMapIxlEE4dumpEPKc@Base 2.41
 (optional=templinst|arch=!x32)_ZN6VectorIP10DefaultMapIxlEE4typeEv@Base 2.41
 (optional=templinst|arch=!x32)_ZN6VectorIP10DefaultMapIxlEE6appendES2_@Base 2.41
 (optional=templinst|arch=!x32)_ZN6VectorIP10DefaultMapIxlEED0Ev@Base 2.41
 (optional=templinst|arch=!x32)_ZN6VectorIP10DefaultMapIxlEED1Ev@Base 2.41
 (optional=templinst|arch=!x32)_ZN6VectorIP10DefaultMapIxlEED2Ev@Base 2.41
 (optional=templinst|arch=!x32)_ZN6VectorIP10DefaultMapIxxEE4dumpEPKc@Base 2.41
 (optional=templinst|arch=!x32)_ZN6VectorIP10DefaultMapIxxEE4typeEv@Base 2.41
 (optional=templinst|arch=!x32)_ZN6VectorIP10DefaultMapIxxEE6appendES2_@Base 2.41
 (optional=templinst|arch=!x32)_ZN6VectorIP10DefaultMapIxxEED0Ev@Base 2.41
 (optional=templinst|arch=!x32)_ZN6VectorIP10DefaultMapIxxEED1Ev@Base 2.41
 (optional=templinst|arch=!x32)_ZN6VectorIP10DefaultMapIxxEED2Ev@Base 2.41
 (optional=templinst|arch=!x32)_ZN6VectorIP10ExperimentE4dumpEPKc@Base 2.41
 (optional=templinst|arch=!x32)_ZN6VectorIP10ExperimentE4typeEv@Base 2.41
 (optional=templinst|arch=!x32)_ZN6VectorIP10ExperimentE6appendES1_@Base 2.41
 (optional=templinst|arch=!x32)_ZN6VectorIP10ExperimentED0Ev@Base 2.41
 (optional=templinst|arch=!x32)_ZN6VectorIP10ExperimentED1Ev@Base 2.41
 (optional=templinst|arch=!x32)_ZN6VectorIP10ExperimentED2Ev@Base 2.41
 (optional=templinst|arch=!x32)_ZN6VectorIP10ExpressionE4dumpEPKc@Base 2.41
 (optional=templinst|arch=!x32)_ZN6VectorIP10ExpressionE4typeEv@Base 2.41
 (optional=templinst|arch=!x32)_ZN6VectorIP10ExpressionE6appendES1_@Base 2.41
 (optional=templinst|arch=!x32)_ZN6VectorIP10ExpressionED0Ev@Base 2.41
 (optional=templinst|arch=!x32)_ZN6VectorIP10ExpressionED1Ev@Base 2.41
 (optional=templinst|arch=!x32)_ZN6VectorIP10ExpressionED2Ev@Base 2.41
 (optional=templinst|arch=!x32)_ZN6VectorIP10FieldDescrE4dumpEPKc@Base 2.41
 (optional=templinst|arch=!x32)_ZN6VectorIP10FieldDescrE4typeEv@Base 2.41
 (optional=templinst|arch=!x32)_ZN6VectorIP10FieldDescrED0Ev@Base 2.41
 (optional=templinst|arch=!x32)_ZN6VectorIP10FieldDescrED1Ev@Base 2.41
 (optional=templinst|arch=!x32)_ZN6VectorIP10FieldDescrED2Ev@Base 2.41
 (optional=templinst|arch=!x32)_ZN6VectorIP10LoadObjectE4dumpEPKc@Base 2.41
 (optional=templinst|arch=!x32)_ZN6VectorIP10LoadObjectE4typeEv@Base 2.41
 (optional=templinst|arch=!x32)_ZN6VectorIP10LoadObjectE6appendES1_@Base 2.41
 (optional=templinst|arch=!x32)_ZN6VectorIP10LoadObjectED0Ev@Base 2.41
 (optional=templinst|arch=!x32)_ZN6VectorIP10LoadObjectED1Ev@Base 2.41
 (optional=templinst|arch=!x32)_ZN6VectorIP10LoadObjectED2Ev@Base 2.41
 (optional=templinst|arch=!x32)_ZN6VectorIP10MetricListE4dumpEPKc@Base 2.41
 (optional=templinst|arch=!x32)_ZN6VectorIP10MetricListE4typeEv@Base 2.41
 (optional=templinst|arch=!x32)_ZN6VectorIP10MetricListE5storeElS1_@Base 2.41
 (optional=templinst|arch=!x32)_ZN6VectorIP10MetricListE6resizeEl@Base 2.41
 (optional=templinst|arch=!x32)_ZN6VectorIP10MetricListED0Ev@Base 2.41
 (optional=templinst|arch=!x32)_ZN6VectorIP10MetricListED1Ev@Base 2.41
 (optional=templinst|arch=!x32)_ZN6VectorIP10MetricListED2Ev@Base 2.41
 (optional=templinst|arch=!x32)_ZN6VectorIP10SourceFileE4dumpEPKc@Base 2.41
 (optional=templinst|arch=!x32)_ZN6VectorIP10SourceFileE4typeEv@Base 2.41
 (optional=templinst|arch=!x32)_ZN6VectorIP10SourceFileE6appendES1_@Base 2.41
 (optional=templinst|arch=!x32)_ZN6VectorIP10SourceFileED0Ev@Base 2.41
 (optional=templinst|arch=!x32)_ZN6VectorIP10SourceFileED1Ev@Base 2.41
 (optional=templinst|arch=!x32)_ZN6VectorIP10SourceFileED2Ev@Base 2.41
 (optional=templinst|arch=!x32)_ZN6VectorIP10UnmapChunkE4dumpEPKc@Base 2.41
 (optional=templinst|arch=!x32)_ZN6VectorIP10UnmapChunkE4typeEv@Base 2.41
 (optional=templinst|arch=!x32)_ZN6VectorIP10UnmapChunkED0Ev@Base 2.41
 (optional=templinst|arch=!x32)_ZN6VectorIP10UnmapChunkED1Ev@Base 2.41
 (optional=templinst|arch=!x32)_ZN6VectorIP10UnmapChunkED2Ev@Base 2.41
 (optional=templinst|arch=!x32)_ZN6VectorIP10datatype_tE11incorporateES1_PFiPKvS4_E@Base 2.41
 (optional=templinst|arch=!x32)_ZN6VectorIP10datatype_tE4dumpEPKc@Base 2.41
 (optional=templinst|arch=!x32)_ZN6VectorIP10datatype_tE4typeEv@Base 2.41
 (optional=templinst|arch=!x32)_ZN6VectorIP10datatype_tE6appendES1_@Base 2.41
 (optional=templinst|arch=!x32)_ZN6VectorIP10datatype_tED0Ev@Base 2.41
 (optional=templinst|arch=!x32)_ZN6VectorIP10datatype_tED1Ev@Base 2.41
 (optional=templinst|arch=!x32)_ZN6VectorIP10datatype_tED2Ev@Base 2.41
 (optional=templinst|arch=!x32)_ZN6VectorIP10definitionE4dumpEPKc@Base 2.41
 (optional=templinst|arch=!x32)_ZN6VectorIP10definitionE4typeEv@Base 2.41
 (optional=templinst|arch=!x32)_ZN6VectorIP10definitionE6appendES1_@Base 2.41
 (optional=templinst|arch=!x32)_ZN6VectorIP10definitionED0Ev@Base 2.41
 (optional=templinst|arch=!x32)_ZN6VectorIP10definitionED1Ev@Base 2.41
 (optional=templinst|arch=!x32)_ZN6VectorIP10definitionED2Ev@Base 2.41
 (optional=templinst)_ZN6VectorIP11DwrFileNameE4dumpEPKc@Base 2.41
 (optional=templinst|arch=!x32)_ZN6VectorIP11DwrFileNameE4typeEv@Base 2.41
 (optional=templinst|arch=!x32)_ZN6VectorIP11DwrFileNameE6appendES1_@Base 2.41
 (optional=templinst|arch=!x32)_ZN6VectorIP11DwrFileNameED0Ev@Base 2.41
 (optional=templinst|arch=!x32)_ZN6VectorIP11DwrFileNameED1Ev@Base 2.41
 (optional=templinst|arch=!x32)_ZN6VectorIP11DwrFileNameED2Ev@Base 2.41
 (optional=templinst|arch=!x32)_ZN6VectorIP11MemorySpaceE4dumpEPKc@Base 2.41
 (optional=templinst|arch=!x32)_ZN6VectorIP11MemorySpaceE4typeEv@Base 2.41
 (optional=templinst|arch=!x32)_ZN6VectorIP11MemorySpaceED0Ev@Base 2.41
 (optional=templinst|arch=!x32)_ZN6VectorIP11MemorySpaceED1Ev@Base 2.41
 (optional=templinst|arch=!x32)_ZN6VectorIP11MemorySpaceED2Ev@Base 2.41
 (optional=templinst|arch=!x32)_ZN6VectorIP11inst_info_tE11incorporateES1_PFiPKvS4_E@Base 2.41
 (optional=templinst|arch=!x32)_ZN6VectorIP11inst_info_tE4dumpEPKc@Base 2.41
 (optional=templinst|arch=!x32)_ZN6VectorIP11inst_info_tE4typeEv@Base 2.41
 (optional=templinst|arch=!x32)_ZN6VectorIP11inst_info_tE6appendES1_@Base 2.41
 (optional=templinst|arch=!x32)_ZN6VectorIP11inst_info_tED0Ev@Base 2.41
 (optional=templinst|arch=!x32)_ZN6VectorIP11inst_info_tED1Ev@Base 2.41
 (optional=templinst|arch=!x32)_ZN6VectorIP11inst_info_tED2Ev@Base 2.41
 (optional=templinst|arch=!x32)_ZN6VectorIP11lo_expand_tE4dumpEPKc@Base 2.41
 (optional=templinst|arch=!x32)_ZN6VectorIP11lo_expand_tE4typeEv@Base 2.41
 (optional=templinst|arch=!x32)_ZN6VectorIP11lo_expand_tE6appendES1_@Base 2.41
 (optional=templinst|arch=!x32)_ZN6VectorIP11lo_expand_tED0Ev@Base 2.41
 (optional=templinst|arch=!x32)_ZN6VectorIP11lo_expand_tED1Ev@Base 2.41
 (optional=templinst|arch=!x32)_ZN6VectorIP11lo_expand_tED2Ev@Base 2.41
 (optional=templinst|arch=!x32)_ZN6VectorIP12ByteCodeInfoE4dumpEPKc@Base 2.41
 (optional=templinst|arch=!x32)_ZN6VectorIP12ByteCodeInfoE4typeEv@Base 2.41
 (optional=templinst|arch=!x32)_ZN6VectorIP12ByteCodeInfoED0Ev@Base 2.41
 (optional=templinst|arch=!x32)_ZN6VectorIP12ByteCodeInfoED1Ev@Base 2.41
 (optional=templinst|arch=!x32)_ZN6VectorIP12ByteCodeInfoED2Ev@Base 2.41
 (optional=templinst|arch=!x32)_ZN6VectorIP12MemObjType_tE4dumpEPKc@Base 2.41
 (optional=templinst|arch=!x32)_ZN6VectorIP12MemObjType_tE4typeEv@Base 2.41
 (optional=templinst|arch=!x32)_ZN6VectorIP12MemObjType_tED0Ev@Base 2.41
 (optional=templinst|arch=!x32)_ZN6VectorIP12MemObjType_tED1Ev@Base 2.41
 (optional=templinst|arch=!x32)_ZN6VectorIP12MemObjType_tED2Ev@Base 2.41
 (optional=templinst|arch=!x32)_ZN6VectorIP12memop_info_tE4dumpEPKc@Base 2.41
 (optional=templinst|arch=!x32)_ZN6VectorIP12memop_info_tE4typeEv@Base 2.41
 (optional=templinst|arch=!x32)_ZN6VectorIP12memop_info_tE6appendES1_@Base 2.41
 (optional=templinst|arch=!x32)_ZN6VectorIP12memop_info_tED0Ev@Base 2.41
 (optional=templinst|arch=!x32)_ZN6VectorIP12memop_info_tED1Ev@Base 2.41
 (optional=templinst|arch=!x32)_ZN6VectorIP12memop_info_tED2Ev@Base 2.41
 (optional=templinst|arch=!x32)_ZN6VectorIP13CallStackNodeED0Ev@Base 2.41
 (optional=templinst|arch=!x32)_ZN6VectorIP13CallStackNodeED1Ev@Base 2.41
 (optional=templinst|arch=!x32)_ZN6VectorIP13CallStackNodeED2Ev@Base 2.41
 (optional=templinst|arch=!x32)_ZN6VectorIP13FilterNumericE4dumpEPKc@Base 2.41
 (optional=templinst|arch=!x32)_ZN6VectorIP13FilterNumericE4typeEv@Base 2.41
 (optional=templinst|arch=!x32)_ZN6VectorIP13FilterNumericE6appendES1_@Base 2.41
 (optional=templinst|arch=!x32)_ZN6VectorIP13FilterNumericED0Ev@Base 2.41
 (optional=templinst|arch=!x32)_ZN6VectorIP13FilterNumericED1Ev@Base 2.41
 (optional=templinst|arch=!x32)_ZN6VectorIP13FilterNumericED2Ev@Base 2.41
 (optional=templinst|arch=!x32)_ZN6VectorIP13target_info_tE11incorporateES1_PFiPKvS4_E@Base 2.41
 (optional=templinst|arch=!x32)_ZN6VectorIP13target_info_tE4dumpEPKc@Base 2.41
 (optional=templinst|arch=!x32)_ZN6VectorIP13target_info_tE4typeEv@Base 2.41
 (optional=templinst|arch=!x32)_ZN6VectorIP13target_info_tE6appendES1_@Base 2.41
 (optional=templinst|arch=!x32)_ZN6VectorIP13target_info_tED0Ev@Base 2.41
 (optional=templinst|arch=!x32)_ZN6VectorIP13target_info_tED1Ev@Base 2.41
 (optional=templinst|arch=!x32)_ZN6VectorIP13target_info_tED2Ev@Base 2.41
 (optional=templinst|arch=!x32)_ZN6VectorIP14DataDescriptorE4dumpEPKc@Base 2.41
 (optional=templinst|arch=!x32)_ZN6VectorIP14DataDescriptorE4typeEv@Base 2.41
 (optional=templinst|arch=!x32)_ZN6VectorIP14DataDescriptorE6resizeEl@Base 2.41
 (optional=templinst|arch=!x32)_ZN6VectorIP14DataDescriptorED0Ev@Base 2.41
 (optional=templinst|arch=!x32)_ZN6VectorIP14DataDescriptorED1Ev@Base 2.41
 (optional=templinst|arch=!x32)_ZN6VectorIP14DataDescriptorED2Ev@Base 2.41
 (optional=templinst)_ZN6VectorIP14DwrInlinedSubrE4dumpEPKc@Base 2.41
 (optional=templinst|arch=!x32)_ZN6VectorIP14DwrInlinedSubrE4typeEv@Base 2.41
 (optional=templinst|arch=!x32)_ZN6VectorIP14DwrInlinedSubrE6appendES1_@Base 2.41
 (optional=templinst|arch=!x32)_ZN6VectorIP14DwrInlinedSubrED0Ev@Base 2.41
 (optional=templinst|arch=!x32)_ZN6VectorIP14DwrInlinedSubrED1Ev@Base 2.41
 (optional=templinst|arch=!x32)_ZN6VectorIP14DwrInlinedSubrED2Ev@Base 2.41
 (optional=templinst|arch=!x32)_ZN6VectorIP14IndexObjType_tE4dumpEPKc@Base 2.41
 (optional=templinst|arch=!x32)_ZN6VectorIP14IndexObjType_tE4typeEv@Base 2.41
 (optional=templinst|arch=!x32)_ZN6VectorIP14IndexObjType_tED0Ev@Base 2.41
 (optional=templinst|arch=!x32)_ZN6VectorIP14IndexObjType_tED1Ev@Base 2.41
 (optional=templinst|arch=!x32)_ZN6VectorIP14IndexObjType_tED2Ev@Base 2.41
 (optional=templinst|arch=!x32)_ZN6VectorIP16PacketDescriptorE4dumpEPKc@Base 2.41
 (optional=templinst|arch=!x32)_ZN6VectorIP16PacketDescriptorE4typeEv@Base 2.41
 (optional=templinst|arch=!x32)_ZN6VectorIP16PacketDescriptorED0Ev@Base 2.41
 (optional=templinst|arch=!x32)_ZN6VectorIP16PacketDescriptorED1Ev@Base 2.41
 (optional=templinst|arch=!x32)_ZN6VectorIP16PacketDescriptorED2Ev@Base 2.41
 (optional=templinst|arch=!x32)_ZN6VectorIP18BaseMetricTreeNodeE4dumpEPKc@Base 2.41
 (optional=templinst|arch=!x32)_ZN6VectorIP18BaseMetricTreeNodeE4typeEv@Base 2.41
 (optional=templinst|arch=!x32)_ZN6VectorIP18BaseMetricTreeNodeED0Ev@Base 2.41
 (optional=templinst|arch=!x32)_ZN6VectorIP18BaseMetricTreeNodeED1Ev@Base 2.41
 (optional=templinst|arch=!x32)_ZN6VectorIP18BaseMetricTreeNodeED2Ev@Base 2.41
 (optional=templinst|arch=!x32)_ZN6VectorIP3ElfE4dumpEPKc@Base 2.41
 (optional=templinst|arch=!x32)_ZN6VectorIP3ElfE4typeEv@Base 2.41
 (optional=templinst|arch=!x32)_ZN6VectorIP3ElfED0Ev@Base 2.41
 (optional=templinst|arch=!x32)_ZN6VectorIP3ElfED1Ev@Base 2.41
 (optional=templinst|arch=!x32)_ZN6VectorIP3ElfED2Ev@Base 2.41
 (optional=templinst|arch=!x32)_ZN6VectorIP3MapIxPvEE4dumpEPKc@Base 2.41
 (optional=templinst|arch=!x32)_ZN6VectorIP3MapIxPvEE4typeEv@Base 2.41
 (optional=templinst|arch=!x32)_ZN6VectorIP3MapIxPvEED0Ev@Base 2.41
 (optional=templinst|arch=!x32)_ZN6VectorIP3MapIxPvEED1Ev@Base 2.41
 (optional=templinst|arch=!x32)_ZN6VectorIP3MapIxPvEED2Ev@Base 2.41
 (optional=templinst|arch=!x32)_ZN6VectorIP3MapIxmEE4dumpEPKc@Base 2.41
 (optional=templinst|arch=!x32)_ZN6VectorIP3MapIxmEE4typeEv@Base 2.41
 (optional=templinst|arch=!x32)_ZN6VectorIP3MapIxmEED0Ev@Base 2.41
 (optional=templinst|arch=!x32)_ZN6VectorIP3MapIxmEED1Ev@Base 2.41
 (optional=templinst|arch=!x32)_ZN6VectorIP3MapIxmEED2Ev@Base 2.41
 (optional=templinst|arch=i386)_ZN6VectorIP3MapIxyEE4dumpEPKc@Base 2.41
 (optional=templinst|arch=i386)_ZN6VectorIP3MapIxyEE4typeEv@Base 2.41
 (optional=templinst|arch=i386)_ZN6VectorIP3MapIxyEED0Ev@Base 2.41
 (optional=templinst|arch=i386)_ZN6VectorIP3MapIxyEED1Ev@Base 2.41
 (optional=templinst|arch=i386)_ZN6VectorIP3MapIxyEED2Ev@Base 2.41
 (optional=templinst|arch=!x32)_ZN6VectorIP4ComCE4dumpEPKc@Base 2.41
 (optional=templinst|arch=!x32)_ZN6VectorIP4ComCE4typeEv@Base 2.41
 (optional=templinst|arch=!x32)_ZN6VectorIP4ComCE6appendES1_@Base 2.41
 (optional=templinst|arch=!x32)_ZN6VectorIP4ComCED0Ev@Base 2.41
 (optional=templinst|arch=!x32)_ZN6VectorIP4ComCED1Ev@Base 2.41
 (optional=templinst|arch=!x32)_ZN6VectorIP4ComCED2Ev@Base 2.41
 (optional=templinst|arch=!x32)_ZN6VectorIP4DataE4dumpEPKc@Base 2.41
 (optional=templinst|arch=!x32)_ZN6VectorIP4DataE4typeEv@Base 2.41
 (optional=templinst|arch=!x32)_ZN6VectorIP4DataED0Ev@Base 2.41
 (optional=templinst|arch=!x32)_ZN6VectorIP4DataED1Ev@Base 2.41
 (optional=templinst|arch=!x32)_ZN6VectorIP4DataED2Ev@Base 2.41
 (optional=templinst|arch=!x32)_ZN6VectorIP4EmsgE4dumpEPKc@Base 2.41
 (optional=templinst|arch=!x32)_ZN6VectorIP4EmsgE4typeEv@Base 2.41
 (optional=templinst|arch=!x32)_ZN6VectorIP4EmsgE6appendES1_@Base 2.41
 (optional=templinst|arch=!x32)_ZN6VectorIP4EmsgED0Ev@Base 2.41
 (optional=templinst|arch=!x32)_ZN6VectorIP4EmsgED1Ev@Base 2.41
 (optional=templinst|arch=!x32)_ZN6VectorIP4EmsgED2Ev@Base 2.41
 (optional=templinst|arch=!x32)_ZN6VectorIP5DbeEAE4dumpEPKc@Base 2.41
 (optional=templinst|arch=!x32)_ZN6VectorIP5DbeEAE4typeEv@Base 2.41
 (optional=templinst|arch=!x32)_ZN6VectorIP5DbeEAE6insertElS1_@Base 2.41
 (optional=templinst|arch=!x32)_ZN6VectorIP5DbeEAED0Ev@Base 2.41
 (optional=templinst|arch=!x32)_ZN6VectorIP5DbeEAED1Ev@Base 2.41
 (optional=templinst|arch=!x32)_ZN6VectorIP5DbeEAED2Ev@Base 2.41
 (optional=templinst|arch=!x32)_ZN6VectorIP5DwrCUE4dumpEPKc@Base 2.41
 (optional=templinst|arch=!x32)_ZN6VectorIP5DwrCUE4typeEv@Base 2.41
 (optional=templinst|arch=!x32)_ZN6VectorIP5DwrCUED0Ev@Base 2.41
 (optional=templinst|arch=!x32)_ZN6VectorIP5DwrCUED1Ev@Base 2.41
 (optional=templinst|arch=!x32)_ZN6VectorIP5DwrCUED2Ev@Base 2.41
 (optional=templinst|arch=!x32)_ZN6VectorIP5RelocE4dumpEPKc@Base 2.41
 (optional=templinst|arch=!x32)_ZN6VectorIP5RelocE4typeEv@Base 2.41
 (optional=templinst|arch=!x32)_ZN6VectorIP5RelocE6appendES1_@Base 2.41
 (optional=templinst|arch=!x32)_ZN6VectorIP5RelocED0Ev@Base 2.41
 (optional=templinst|arch=!x32)_ZN6VectorIP5RelocED1Ev@Base 2.41
 (optional=templinst|arch=!x32)_ZN6VectorIP5RelocED2Ev@Base 2.41
 (optional=templinst|arch=!x32)_ZN6VectorIP6MemObjE4dumpEPKc@Base 2.41
 (optional=templinst|arch=!x32)_ZN6VectorIP6MemObjE4typeEv@Base 2.41
 (optional=templinst|arch=!x32)_ZN6VectorIP6MemObjED0Ev@Base 2.41
 (optional=templinst|arch=!x32)_ZN6VectorIP6MemObjED1Ev@Base 2.41
 (optional=templinst|arch=!x32)_ZN6VectorIP6MemObjED2Ev@Base 2.41
 (optional=templinst|arch=!x32)_ZN6VectorIP6MetricE4dumpEPKc@Base 2.41
 (optional=templinst|arch=!x32)_ZN6VectorIP6MetricE4typeEv@Base 2.41
 (optional=templinst|arch=!x32)_ZN6VectorIP6MetricE6appendES1_@Base 2.41
 (optional=templinst|arch=!x32)_ZN6VectorIP6MetricE6resizeEl@Base 2.41
 (optional=templinst|arch=!x32)_ZN6VectorIP6MetricED0Ev@Base 2.41
 (optional=templinst|arch=!x32)_ZN6VectorIP6MetricED1Ev@Base 2.41
 (optional=templinst|arch=!x32)_ZN6VectorIP6MetricED2Ev@Base 2.41
 (optional=templinst|arch=!x32)_ZN6VectorIP6ModuleE4dumpEPKc@Base 2.41
 (optional=templinst|arch=!x32)_ZN6VectorIP6ModuleE4typeEv@Base 2.41
 (optional=templinst|arch=!x32)_ZN6VectorIP6ModuleE6appendES1_@Base 2.41
 (optional=templinst|arch=!x32)_ZN6VectorIP6ModuleED0Ev@Base 2.41
 (optional=templinst|arch=!x32)_ZN6VectorIP6ModuleED1Ev@Base 2.41
 (optional=templinst|arch=!x32)_ZN6VectorIP6ModuleED2Ev@Base 2.41
 (optional=templinst|arch=!x32)_ZN6VectorIP6PCInfoE4dumpEPKc@Base 2.41
 (optional=templinst|arch=!x32)_ZN6VectorIP6PCInfoE4typeEv@Base 2.41
 (optional=templinst|arch=!x32)_ZN6VectorIP6PCInfoE6insertElS1_@Base 2.41
 (optional=templinst|arch=!x32)_ZN6VectorIP6PCInfoED0Ev@Base 2.41
 (optional=templinst|arch=!x32)_ZN6VectorIP6PCInfoED1Ev@Base 2.41
 (optional=templinst|arch=!x32)_ZN6VectorIP6PCInfoED2Ev@Base 2.41
 (optional=templinst|arch=!x32)_ZN6VectorIP6SampleE4dumpEPKc@Base 2.41
 (optional=templinst|arch=!x32)_ZN6VectorIP6SampleE4typeEv@Base 2.41
 (optional=templinst|arch=!x32)_ZN6VectorIP6SampleED0Ev@Base 2.41
 (optional=templinst|arch=!x32)_ZN6VectorIP6SampleED1Ev@Base 2.41
 (optional=templinst|arch=!x32)_ZN6VectorIP6SampleED2Ev@Base 2.41
 (optional=templinst|arch=!x32)_ZN6VectorIP6SegMemE4dumpEPKc@Base 2.41
 (optional=templinst|arch=!x32)_ZN6VectorIP6SegMemE4typeEv@Base 2.41
 (optional=templinst|arch=!x32)_ZN6VectorIP6SegMemED0Ev@Base 2.41
 (optional=templinst|arch=!x32)_ZN6VectorIP6SegMemED1Ev@Base 2.41
 (optional=templinst|arch=!x32)_ZN6VectorIP6SegMemED2Ev@Base 2.41
 (optional=templinst|arch=!x32)_ZN6VectorIP6SymbolE4copyEv@Base 2.41
 (optional=templinst|arch=!x32)_ZN6VectorIP6SymbolE4dumpEPKc@Base 2.41
 (optional=templinst|arch=!x32)_ZN6VectorIP6SymbolE4typeEv@Base 2.41
 (optional=templinst|arch=!x32)_ZN6VectorIP6SymbolE6appendES1_@Base 2.41
 (optional=templinst|arch=!x32)_ZN6VectorIP6SymbolED0Ev@Base 2.41
 (optional=templinst|arch=!x32)_ZN6VectorIP6SymbolED1Ev@Base 2.41
 (optional=templinst|arch=!x32)_ZN6VectorIP6SymbolED2Ev@Base 2.41
 (optional=templinst|arch=!x32)_ZN6VectorIP7DbeFileE4dumpEPKc@Base 2.41
 (optional=templinst|arch=!x32)_ZN6VectorIP7DbeFileE4typeEv@Base 2.41
 (optional=templinst|arch=!x32)_ZN6VectorIP7DbeFileED0Ev@Base 2.41
 (optional=templinst|arch=!x32)_ZN6VectorIP7DbeFileED1Ev@Base 2.41
 (optional=templinst|arch=!x32)_ZN6VectorIP7DbeFileED2Ev@Base 2.41
 (optional=templinst|arch=!x32)_ZN6VectorIP7DbeLineE4dumpEPKc@Base 2.41
 (optional=templinst|arch=!x32)_ZN6VectorIP7DbeLineE4typeEv@Base 2.41
 (optional=templinst|arch=!x32)_ZN6VectorIP7DbeLineED0Ev@Base 2.41
 (optional=templinst|arch=!x32)_ZN6VectorIP7DbeLineED1Ev@Base 2.41
 (optional=templinst|arch=!x32)_ZN6VectorIP7DbeLineED2Ev@Base 2.41
 (optional=templinst|arch=!x32)_ZN6VectorIP7DbeViewE4dumpEPKc@Base 2.41
 (optional=templinst|arch=!x32)_ZN6VectorIP7DbeViewE4typeEv@Base 2.41
 (optional=templinst|arch=!x32)_ZN6VectorIP7DbeViewED0Ev@Base 2.41
 (optional=templinst|arch=!x32)_ZN6VectorIP7DbeViewED1Ev@Base 2.41
 (optional=templinst|arch=!x32)_ZN6VectorIP7DbeViewED2Ev@Base 2.41
 (optional=templinst|arch=!x32)_ZN6VectorIP7DispTabE4dumpEPKc@Base 2.41
 (optional=templinst|arch=!x32)_ZN6VectorIP7DispTabE4typeEv@Base 2.41
 (optional=templinst|arch=!x32)_ZN6VectorIP7DispTabE6appendES1_@Base 2.41
 (optional=templinst|arch=!x32)_ZN6VectorIP7DispTabED0Ev@Base 2.41
 (optional=templinst|arch=!x32)_ZN6VectorIP7DispTabED1Ev@Base 2.41
 (optional=templinst|arch=!x32)_ZN6VectorIP7DispTabED2Ev@Base 2.41
 (optional=templinst)_ZN6VectorIP7DwrLineE4dumpEPKc@Base 2.41
 (optional=templinst|arch=!x32)_ZN6VectorIP7DwrLineE4typeEv@Base 2.41
 (optional=templinst|arch=!x32)_ZN6VectorIP7DwrLineED0Ev@Base 2.41
 (optional=templinst|arch=!x32)_ZN6VectorIP7DwrLineED1Ev@Base 2.41
 (optional=templinst|arch=!x32)_ZN6VectorIP7DwrLineED2Ev@Base 2.41
 (optional=templinst|arch=!x32)_ZN6VectorIP7GCEventE4dumpEPKc@Base 2.41
 (optional=templinst|arch=!x32)_ZN6VectorIP7GCEventE4typeEv@Base 2.41
 (optional=templinst|arch=!x32)_ZN6VectorIP7GCEventE6appendES1_@Base 2.41
 (optional=templinst|arch=!x32)_ZN6VectorIP7GCEventED0Ev@Base 2.41
 (optional=templinst|arch=!x32)_ZN6VectorIP7GCEventED1Ev@Base 2.41
 (optional=templinst|arch=!x32)_ZN6VectorIP7GCEventED2Ev@Base 2.41
 (optional=templinst|arch=!x32)_ZN6VectorIP7HashMapImP8HistableEE4dumpEPKc@Base 2.41
 (optional=templinst|arch=!x32)_ZN6VectorIP7HashMapImP8HistableEE4typeEv@Base 2.41
 (optional=templinst|arch=!x32)_ZN6VectorIP7HashMapImP8HistableEED0Ev@Base 2.41
 (optional=templinst|arch=!x32)_ZN6VectorIP7HashMapImP8HistableEED1Ev@Base 2.41
 (optional=templinst|arch=!x32)_ZN6VectorIP7HashMapImP8HistableEED2Ev@Base 2.41
 (optional=templinst|arch=i386)_ZN6VectorIP7HashMapIyP8HistableEE4dumpEPKc@Base 2.41
 (optional=templinst|arch=i386)_ZN6VectorIP7HashMapIyP8HistableEE4typeEv@Base 2.41
 (optional=templinst|arch=i386)_ZN6VectorIP7HashMapIyP8HistableEED0Ev@Base 2.41
 (optional=templinst|arch=i386)_ZN6VectorIP7HashMapIyP8HistableEED1Ev@Base 2.41
 (optional=templinst|arch=i386)_ZN6VectorIP7HashMapIyP8HistableEED2Ev@Base 2.41
 (optional=templinst|arch=!x32)_ZN6VectorIP7JThreadE4dumpEPKc@Base 2.41
 (optional=templinst|arch=!x32)_ZN6VectorIP7JThreadE4typeEv@Base 2.41
 (optional=templinst|arch=!x32)_ZN6VectorIP7JThreadE6insertElS1_@Base 2.41
 (optional=templinst|arch=!x32)_ZN6VectorIP7JThreadE6resizeEl@Base 2.41
 (optional=templinst|arch=!x32)_ZN6VectorIP7JThreadED0Ev@Base 2.41
 (optional=templinst|arch=!x32)_ZN6VectorIP7JThreadED1Ev@Base 2.41
 (optional=templinst|arch=!x32)_ZN6VectorIP7JThreadED2Ev@Base 2.41
 (optional=templinst|arch=!x32)_ZN6VectorIP8DataViewE4dumpEPKc@Base 2.41
 (optional=templinst|arch=!x32)_ZN6VectorIP8DataViewE4typeEv@Base 2.41
 (optional=templinst|arch=!x32)_ZN6VectorIP8DataViewE5storeElS1_@Base 2.41
 (optional=templinst|arch=!x32)_ZN6VectorIP8DataViewE6resizeEl@Base 2.41
 (optional=templinst|arch=!x32)_ZN6VectorIP8DataViewED0Ev@Base 2.41
 (optional=templinst|arch=!x32)_ZN6VectorIP8DataViewED1Ev@Base 2.41
 (optional=templinst|arch=!x32)_ZN6VectorIP8DataViewED2Ev@Base 2.41
 (optional=templinst|arch=!x32)_ZN6VectorIP8DbeInstrE4dumpEPKc@Base 2.41
 (optional=templinst|arch=!x32)_ZN6VectorIP8DbeInstrE4typeEv@Base 2.41
 (optional=templinst|arch=!x32)_ZN6VectorIP8DbeInstrE6appendES1_@Base 2.41
 (optional=templinst|arch=!x32)_ZN6VectorIP8DbeInstrE6insertElS1_@Base 2.41
 (optional=templinst|arch=!x32)_ZN6VectorIP8DbeInstrED0Ev@Base 2.41
 (optional=templinst|arch=!x32)_ZN6VectorIP8DbeInstrED1Ev@Base 2.41
 (optional=templinst|arch=!x32)_ZN6VectorIP8DbeInstrED2Ev@Base 2.41
 (optional=templinst|arch=!x32)_ZN6VectorIP8Dwr_typeE4dumpEPKc@Base 2.41
 (optional=templinst|arch=!x32)_ZN6VectorIP8Dwr_typeE4typeEv@Base 2.41
 (optional=templinst|arch=!x32)_ZN6VectorIP8Dwr_typeED0Ev@Base 2.41
 (optional=templinst|arch=!x32)_ZN6VectorIP8Dwr_typeED1Ev@Base 2.41
 (optional=templinst|arch=!x32)_ZN6VectorIP8Dwr_typeED2Ev@Base 2.41
 (optional=templinst|arch=!x32)_ZN6VectorIP8ExpGroupE4dumpEPKc@Base 2.41
 (optional=templinst|arch=!x32)_ZN6VectorIP8ExpGroupE4typeEv@Base 2.41
 (optional=templinst|arch=!x32)_ZN6VectorIP8ExpGroupED0Ev@Base 2.41
 (optional=templinst|arch=!x32)_ZN6VectorIP8ExpGroupED1Ev@Base 2.41
 (optional=templinst|arch=!x32)_ZN6VectorIP8ExpGroupED2Ev@Base 2.41
 (optional=templinst|arch=!x32)_ZN6VectorIP8FileDataE4copyEv@Base 2.41
 (optional=templinst|arch=!x32)_ZN6VectorIP8FileDataE4dumpEPKc@Base 2.41
 (optional=templinst|arch=!x32)_ZN6VectorIP8FileDataE4typeEv@Base 2.41
 (optional=templinst|arch=!x32)_ZN6VectorIP8FileDataE6appendES1_@Base 2.41
 (optional=templinst|arch=!x32)_ZN6VectorIP8FileDataED0Ev@Base 2.41
 (optional=templinst|arch=!x32)_ZN6VectorIP8FileDataED1Ev@Base 2.41
 (optional=templinst|arch=!x32)_ZN6VectorIP8FileDataED2Ev@Base 2.41
 (optional=templinst|arch=!x32)_ZN6VectorIP8FunctionE4dumpEPKc@Base 2.41
 (optional=templinst|arch=!x32)_ZN6VectorIP8FunctionE4typeEv@Base 2.41
 (optional=templinst|arch=!x32)_ZN6VectorIP8FunctionE5storeElS1_@Base 2.41
 (optional=templinst|arch=!x32)_ZN6VectorIP8FunctionE6addAllEPS2_@Base 2.41
 (optional=templinst|arch=!x32)_ZN6VectorIP8FunctionE6appendES1_@Base 2.41
 (optional=templinst|arch=!x32)_ZN6VectorIP8FunctionE6resizeEl@Base 2.41
 (optional=templinst|arch=!x32)_ZN6VectorIP8FunctionED0Ev@Base 2.41
 (optional=templinst|arch=!x32)_ZN6VectorIP8FunctionED1Ev@Base 2.41
 (optional=templinst|arch=!x32)_ZN6VectorIP8FunctionED2Ev@Base 2.41
 (optional=templinst|arch=!x32)_ZN6VectorIP8HeapDataE4dumpEPKc@Base 2.41
 (optional=templinst|arch=!x32)_ZN6VectorIP8HeapDataE4typeEv@Base 2.41
 (optional=templinst|arch=!x32)_ZN6VectorIP8HeapDataED0Ev@Base 2.41
 (optional=templinst|arch=!x32)_ZN6VectorIP8HeapDataED1Ev@Base 2.41
 (optional=templinst|arch=!x32)_ZN6VectorIP8HeapDataED2Ev@Base 2.41
 (optional=templinst|arch=!x32)_ZN6VectorIP8HistableE4dumpEPKc@Base 2.41
 (optional=templinst|arch=!x32)_ZN6VectorIP8HistableE4typeEv@Base 2.41
 (optional=templinst|arch=!x32)_ZN6VectorIP8HistableE5storeElS1_@Base 2.41
 (optional=templinst|arch=!x32)_ZN6VectorIP8HistableE6appendES1_@Base 2.41
 (optional=templinst|arch=!x32)_ZN6VectorIP8HistableE6resizeEl@Base 2.41
 (optional=templinst|arch=!x32)_ZN6VectorIP8HistableED0Ev@Base 2.41
 (optional=templinst|arch=!x32)_ZN6VectorIP8HistableED1Ev@Base 2.41
 (optional=templinst|arch=!x32)_ZN6VectorIP8HistableED2Ev@Base 2.41
 (optional=templinst|arch=!x32)_ZN6VectorIP8HwcentryE4dumpEPKc@Base 2.41
 (optional=templinst|arch=!x32)_ZN6VectorIP8HwcentryE4typeEv@Base 2.41
 (optional=templinst|arch=!x32)_ZN6VectorIP8HwcentryED0Ev@Base 2.41
 (optional=templinst|arch=!x32)_ZN6VectorIP8HwcentryED1Ev@Base 2.41
 (optional=templinst|arch=!x32)_ZN6VectorIP8HwcentryED2Ev@Base 2.41
 (optional=templinst|arch=!x32)_ZN6VectorIP8PathTreeE4dumpEPKc@Base 2.41
 (optional=templinst|arch=!x32)_ZN6VectorIP8PathTreeE4typeEv@Base 2.41
 (optional=templinst|arch=!x32)_ZN6VectorIP8PathTreeE5storeElS1_@Base 2.41
 (optional=templinst|arch=!x32)_ZN6VectorIP8PathTreeED0Ev@Base 2.41
 (optional=templinst|arch=!x32)_ZN6VectorIP8PathTreeED1Ev@Base 2.41
 (optional=templinst|arch=!x32)_ZN6VectorIP8PathTreeED2Ev@Base 2.41
 (optional=templinst)_ZN6VectorIP8ZipEntryE4dumpEPKc@Base 2.41
 (optional=templinst|arch=!x32)_ZN6VectorIP8ZipEntryE4typeEv@Base 2.41
 (optional=templinst|arch=!x32)_ZN6VectorIP8ZipEntryED0Ev@Base 2.41
 (optional=templinst|arch=!x32)_ZN6VectorIP8ZipEntryED1Ev@Base 2.41
 (optional=templinst|arch=!x32)_ZN6VectorIP8ZipEntryED2Ev@Base 2.41
 (optional=templinst|arch=!x32)_ZN6VectorIP9CountableE4dumpEPKc@Base 2.41
 (optional=templinst|arch=!x32)_ZN6VectorIP9CountableE4typeEv@Base 2.41
 (optional=templinst|arch=!x32)_ZN6VectorIP9CountableED0Ev@Base 2.41
 (optional=templinst|arch=!x32)_ZN6VectorIP9CountableED1Ev@Base 2.41
 (optional=templinst|arch=!x32)_ZN6VectorIP9CountableED2Ev@Base 2.41
 (optional=templinst|arch=!x32)_ZN6VectorIP9FilterSetE4dumpEPKc@Base 2.41
 (optional=templinst|arch=!x32)_ZN6VectorIP9FilterSetE4typeEv@Base 2.41
 (optional=templinst|arch=!x32)_ZN6VectorIP9FilterSetE5storeElS1_@Base 2.41
 (optional=templinst|arch=!x32)_ZN6VectorIP9FilterSetED0Ev@Base 2.41
 (optional=templinst|arch=!x32)_ZN6VectorIP9FilterSetED1Ev@Base 2.41
 (optional=templinst|arch=!x32)_ZN6VectorIP9FilterSetED2Ev@Base 2.41
 (optional=templinst|arch=!x32)_ZN6VectorIP9Hist_dataE4dumpEPKc@Base 2.41
 (optional=templinst|arch=!x32)_ZN6VectorIP9Hist_dataE4typeEv@Base 2.41
 (optional=templinst|arch=!x32)_ZN6VectorIP9Hist_dataE5storeElS1_@Base 2.41
 (optional=templinst|arch=!x32)_ZN6VectorIP9Hist_dataED0Ev@Base 2.41
 (optional=templinst|arch=!x32)_ZN6VectorIP9Hist_dataED1Ev@Base 2.41
 (optional=templinst|arch=!x32)_ZN6VectorIP9Hist_dataED2Ev@Base 2.41
 (optional=templinst|arch=!x32)_ZN6VectorIP9PropDescrE4dumpEPKc@Base 2.41
 (optional=templinst|arch=!x32)_ZN6VectorIP9PropDescrE4typeEv@Base 2.41
 (optional=templinst|arch=!x32)_ZN6VectorIP9PropDescrE5storeElS1_@Base 2.41
 (optional=templinst|arch=!x32)_ZN6VectorIP9PropDescrED0Ev@Base 2.41
 (optional=templinst|arch=!x32)_ZN6VectorIP9PropDescrED1Ev@Base 2.41
 (optional=templinst|arch=!x32)_ZN6VectorIP9PropDescrED2Ev@Base 2.41
 (optional=templinst|arch=!x32)_ZN6VectorIP9UserLabelE4dumpEPKc@Base 2.41
 (optional=templinst|arch=!x32)_ZN6VectorIP9UserLabelE4typeEv@Base 2.41
 (optional=templinst|arch=!x32)_ZN6VectorIP9UserLabelED0Ev@Base 2.41
 (optional=templinst|arch=!x32)_ZN6VectorIP9UserLabelED1Ev@Base 2.41
 (optional=templinst|arch=!x32)_ZN6VectorIP9UserLabelED2Ev@Base 2.41
 (optional=templinst|arch=!x32)_ZN6VectorIP9pathmap_tE4dumpEPKc@Base 2.41
 (optional=templinst|arch=!x32)_ZN6VectorIP9pathmap_tE4typeEv@Base 2.41
 (optional=templinst|arch=!x32)_ZN6VectorIP9pathmap_tE6appendES1_@Base 2.41
 (optional=templinst|arch=!x32)_ZN6VectorIP9pathmap_tED0Ev@Base 2.41
 (optional=templinst|arch=!x32)_ZN6VectorIP9pathmap_tED1Ev@Base 2.41
 (optional=templinst|arch=!x32)_ZN6VectorIP9pathmap_tED2Ev@Base 2.41
 (optional=templinst|arch=!x32)_ZN6VectorIPKcE4dumpES1_@Base 2.41
 (optional=templinst|arch=!x32)_ZN6VectorIPKcE4typeEv@Base 2.41
 (optional=templinst|arch=!x32)_ZN6VectorIPKcED0Ev@Base 2.41
 (optional=templinst|arch=!x32)_ZN6VectorIPKcED1Ev@Base 2.41
 (optional=templinst|arch=!x32)_ZN6VectorIPKcED2Ev@Base 2.41
 (optional=templinst|arch=!x32)_ZN6VectorIPN10DefaultMapIP10LoadObjectiE5EntryEE4dumpEPKc@Base 2.41
 (optional=templinst|arch=!x32)_ZN6VectorIPN10DefaultMapIP10LoadObjectiE5EntryEE4typeEv@Base 2.41
 (optional=templinst|arch=!x32)_ZN6VectorIPN10DefaultMapIP10LoadObjectiE5EntryEE6insertElS5_@Base 2.41
 (optional=templinst|arch=!x32)_ZN6VectorIPN10DefaultMapIP10LoadObjectiE5EntryEED0Ev@Base 2.41
 (optional=templinst|arch=!x32)_ZN6VectorIPN10DefaultMapIP10LoadObjectiE5EntryEED1Ev@Base 2.41
 (optional=templinst|arch=!x32)_ZN6VectorIPN10DefaultMapIP10LoadObjectiE5EntryEED2Ev@Base 2.41
 (optional=templinst|arch=!x32)_ZN6VectorIPN10DefaultMapIP8FunctionS2_E5EntryEE4dumpEPKc@Base 2.41
 (optional=templinst|arch=!x32)_ZN6VectorIPN10DefaultMapIP8FunctionS2_E5EntryEE4typeEv@Base 2.41
 (optional=templinst|arch=!x32)_ZN6VectorIPN10DefaultMapIP8FunctionS2_E5EntryEE6insertElS5_@Base 2.41
 (optional=templinst|arch=!x32)_ZN6VectorIPN10DefaultMapIP8FunctionS2_E5EntryEED0Ev@Base 2.41
 (optional=templinst|arch=!x32)_ZN6VectorIPN10DefaultMapIP8FunctionS2_E5EntryEED1Ev@Base 2.41
 (optional=templinst|arch=!x32)_ZN6VectorIPN10DefaultMapIP8FunctionS2_E5EntryEED2Ev@Base 2.41
 (optional=templinst|arch=!x32)_ZN6VectorIPN10DefaultMapIP8FunctioniE5EntryEE4dumpEPKc@Base 2.41
 (optional=templinst|arch=!x32)_ZN6VectorIPN10DefaultMapIP8FunctioniE5EntryEE4typeEv@Base 2.41
 (optional=templinst|arch=!x32)_ZN6VectorIPN10DefaultMapIP8FunctioniE5EntryEE6insertElS5_@Base 2.41
 (optional=templinst|arch=!x32)_ZN6VectorIPN10DefaultMapIP8FunctioniE5EntryEED0Ev@Base 2.41
 (optional=templinst|arch=!x32)_ZN6VectorIPN10DefaultMapIP8FunctioniE5EntryEED1Ev@Base 2.41
 (optional=templinst|arch=!x32)_ZN6VectorIPN10DefaultMapIP8FunctioniE5EntryEED2Ev@Base 2.41
 (optional=templinst|arch=!x32)_ZN6VectorIPN10DefaultMapIP8FunctionlE5EntryEE4dumpEPKc@Base 2.41
 (optional=templinst|arch=!x32)_ZN6VectorIPN10DefaultMapIP8FunctionlE5EntryEE4typeEv@Base 2.41
 (optional=templinst|arch=!x32)_ZN6VectorIPN10DefaultMapIP8FunctionlE5EntryEE6insertElS5_@Base 2.41
 (optional=templinst|arch=!x32)_ZN6VectorIPN10DefaultMapIP8FunctionlE5EntryEED0Ev@Base 2.41
 (optional=templinst|arch=!x32)_ZN6VectorIPN10DefaultMapIP8FunctionlE5EntryEED1Ev@Base 2.41
 (optional=templinst|arch=!x32)_ZN6VectorIPN10DefaultMapIP8FunctionlE5EntryEED2Ev@Base 2.41
 (optional=templinst|arch=!x32)_ZN6VectorIPN10DefaultMapIP8HistableiE5EntryEE4dumpEPKc@Base 2.41
 (optional=templinst|arch=!x32)_ZN6VectorIPN10DefaultMapIP8HistableiE5EntryEE4typeEv@Base 2.41
 (optional=templinst|arch=!x32)_ZN6VectorIPN10DefaultMapIP8HistableiE5EntryEE6insertElS5_@Base 2.41
 (optional=templinst|arch=!x32)_ZN6VectorIPN10DefaultMapIP8HistableiE5EntryEED0Ev@Base 2.41
 (optional=templinst|arch=!x32)_ZN6VectorIPN10DefaultMapIP8HistableiE5EntryEED1Ev@Base 2.41
 (optional=templinst|arch=!x32)_ZN6VectorIPN10DefaultMapIP8HistableiE5EntryEED2Ev@Base 2.41
 (optional=templinst|arch=!x32)_ZN6VectorIPN10DefaultMapIPvP8FileDataE5EntryEE4dumpEPKc@Base 2.41
 (optional=templinst|arch=!x32)_ZN6VectorIPN10DefaultMapIPvP8FileDataE5EntryEE4typeEv@Base 2.41
 (optional=templinst|arch=!x32)_ZN6VectorIPN10DefaultMapIPvP8FileDataE5EntryEE6insertElS6_@Base 2.41
 (optional=templinst|arch=!x32)_ZN6VectorIPN10DefaultMapIPvP8FileDataE5EntryEED0Ev@Base 2.41
 (optional=templinst|arch=!x32)_ZN6VectorIPN10DefaultMapIPvP8FileDataE5EntryEED1Ev@Base 2.41
 (optional=templinst|arch=!x32)_ZN6VectorIPN10DefaultMapIPvP8FileDataE5EntryEED2Ev@Base 2.41
 (optional=templinst|arch=!x32)_ZN6VectorIPN10DefaultMapIiP7DbeLineE5EntryEE4dumpEPKc@Base 2.41
 (optional=templinst|arch=!x32)_ZN6VectorIPN10DefaultMapIiP7DbeLineE5EntryEE4typeEv@Base 2.41
 (optional=templinst|arch=!x32)_ZN6VectorIPN10DefaultMapIiP7DbeLineE5EntryEE6insertElS5_@Base 2.41
 (optional=templinst|arch=!x32)_ZN6VectorIPN10DefaultMapIiP7DbeLineE5EntryEED0Ev@Base 2.41
 (optional=templinst|arch=!x32)_ZN6VectorIPN10DefaultMapIiP7DbeLineE5EntryEED1Ev@Base 2.41
 (optional=templinst|arch=!x32)_ZN6VectorIPN10DefaultMapIiP7DbeLineE5EntryEED2Ev@Base 2.41
 (optional=templinst|arch=!x32)_ZN6VectorIPN10DefaultMapIilE5EntryEE4dumpEPKc@Base 2.41
 (optional=templinst|arch=!x32)_ZN6VectorIPN10DefaultMapIilE5EntryEE4typeEv@Base 2.41
 (optional=templinst|arch=!x32)_ZN6VectorIPN10DefaultMapIilE5EntryEE6insertElS3_@Base 2.41
 (optional=templinst|arch=!x32)_ZN6VectorIPN10DefaultMapIilE5EntryEED0Ev@Base 2.41
 (optional=templinst|arch=!x32)_ZN6VectorIPN10DefaultMapIilE5EntryEED1Ev@Base 2.41
 (optional=templinst|arch=!x32)_ZN6VectorIPN10DefaultMapIilE5EntryEED2Ev@Base 2.41
 (optional=templinst|arch=i386)_ZN6VectorIPN10DefaultMapIixE5EntryEE4dumpEPKc@Base 2.41
 (optional=templinst|arch=i386)_ZN6VectorIPN10DefaultMapIixE5EntryEE4typeEv@Base 2.41
 (optional=templinst|arch=i386)_ZN6VectorIPN10DefaultMapIixE5EntryEE6insertElS3_@Base 2.41
 (optional=templinst|arch=i386)_ZN6VectorIPN10DefaultMapIixE5EntryEED0Ev@Base 2.41
 (optional=templinst|arch=i386)_ZN6VectorIPN10DefaultMapIixE5EntryEED1Ev@Base 2.41
 (optional=templinst|arch=i386)_ZN6VectorIPN10DefaultMapIixE5EntryEED2Ev@Base 2.41
 (optional=templinst|arch=!x32)_ZN6VectorIPN10DefaultMapIjP3MapIxPvEE5EntryEE4dumpEPKc@Base 2.41
 (optional=templinst|arch=!x32)_ZN6VectorIPN10DefaultMapIjP3MapIxPvEE5EntryEE4typeEv@Base 2.41
 (optional=templinst|arch=!x32)_ZN6VectorIPN10DefaultMapIjP3MapIxPvEE5EntryEE6insertElS7_@Base 2.41
 (optional=templinst|arch=!x32)_ZN6VectorIPN10DefaultMapIjP3MapIxPvEE5EntryEED0Ev@Base 2.41
 (optional=templinst|arch=!x32)_ZN6VectorIPN10DefaultMapIjP3MapIxPvEE5EntryEED1Ev@Base 2.41
 (optional=templinst|arch=!x32)_ZN6VectorIPN10DefaultMapIjP3MapIxPvEE5EntryEED2Ev@Base 2.41
 (optional=templinst|arch=!x32)_ZN6VectorIPN10DefaultMapIjP3MapIxmEE5EntryEE4dumpEPKc@Base 2.41
 (optional=templinst|arch=!x32)_ZN6VectorIPN10DefaultMapIjP3MapIxmEE5EntryEE4typeEv@Base 2.41
 (optional=templinst|arch=!x32)_ZN6VectorIPN10DefaultMapIjP3MapIxmEE5EntryEE6insertElS6_@Base 2.41
 (optional=templinst|arch=!x32)_ZN6VectorIPN10DefaultMapIjP3MapIxmEE5EntryEED0Ev@Base 2.41
 (optional=templinst|arch=!x32)_ZN6VectorIPN10DefaultMapIjP3MapIxmEE5EntryEED1Ev@Base 2.41
 (optional=templinst|arch=!x32)_ZN6VectorIPN10DefaultMapIjP3MapIxmEE5EntryEED2Ev@Base 2.41
 (optional=templinst|arch=i386)_ZN6VectorIPN10DefaultMapIjP3MapIxyEE5EntryEE4dumpEPKc@Base 2.41
 (optional=templinst|arch=i386)_ZN6VectorIPN10DefaultMapIjP3MapIxyEE5EntryEE4typeEv@Base 2.41
 (optional=templinst|arch=i386)_ZN6VectorIPN10DefaultMapIjP3MapIxyEE5EntryEE6insertElS6_@Base 2.41
 (optional=templinst|arch=i386)_ZN6VectorIPN10DefaultMapIjP3MapIxyEE5EntryEED0Ev@Base 2.41
 (optional=templinst|arch=i386)_ZN6VectorIPN10DefaultMapIjP3MapIxyEE5EntryEED1Ev@Base 2.41
 (optional=templinst|arch=i386)_ZN6VectorIPN10DefaultMapIjP3MapIxyEE5EntryEED2Ev@Base 2.41
 (optional=templinst|arch=!x32)_ZN6VectorIPN10DefaultMapIlP8Dwr_typeE5EntryEE4dumpEPKc@Base 2.41
 (optional=templinst|arch=!x32)_ZN6VectorIPN10DefaultMapIlP8Dwr_typeE5EntryEE4typeEv@Base 2.41
 (optional=templinst|arch=!x32)_ZN6VectorIPN10DefaultMapIlP8Dwr_typeE5EntryEE6insertElS5_@Base 2.41
 (optional=templinst|arch=!x32)_ZN6VectorIPN10DefaultMapIlP8Dwr_typeE5EntryEED0Ev@Base 2.41
 (optional=templinst|arch=!x32)_ZN6VectorIPN10DefaultMapIlP8Dwr_typeE5EntryEED1Ev@Base 2.41
 (optional=templinst|arch=!x32)_ZN6VectorIPN10DefaultMapIlP8Dwr_typeE5EntryEED2Ev@Base 2.41
 (optional=templinst|arch=!x32)_ZN6VectorIPN10DefaultMapIlP8FileDataE5EntryEE4dumpEPKc@Base 2.41
 (optional=templinst|arch=!x32)_ZN6VectorIPN10DefaultMapIlP8FileDataE5EntryEE4typeEv@Base 2.41
 (optional=templinst|arch=!x32)_ZN6VectorIPN10DefaultMapIlP8FileDataE5EntryEE6insertElS5_@Base 2.41
 (optional=templinst|arch=!x32)_ZN6VectorIPN10DefaultMapIlP8FileDataE5EntryEED0Ev@Base 2.41
 (optional=templinst|arch=!x32)_ZN6VectorIPN10DefaultMapIlP8FileDataE5EntryEED1Ev@Base 2.41
 (optional=templinst|arch=!x32)_ZN6VectorIPN10DefaultMapIlP8FileDataE5EntryEED2Ev@Base 2.41
 (optional=templinst|arch=!x32)_ZN6VectorIPN10DefaultMapImP8HeapDataE5EntryEE4dumpEPKc@Base 2.41
 (optional=templinst|arch=!x32)_ZN6VectorIPN10DefaultMapImP8HeapDataE5EntryEE4typeEv@Base 2.41
 (optional=templinst|arch=!x32)_ZN6VectorIPN10DefaultMapImP8HeapDataE5EntryEE6insertElS5_@Base 2.41
 (optional=templinst|arch=!x32)_ZN6VectorIPN10DefaultMapImP8HeapDataE5EntryEED0Ev@Base 2.41
 (optional=templinst|arch=!x32)_ZN6VectorIPN10DefaultMapImP8HeapDataE5EntryEED1Ev@Base 2.41
 (optional=templinst|arch=!x32)_ZN6VectorIPN10DefaultMapImP8HeapDataE5EntryEED2Ev@Base 2.41
 (optional=templinst|arch=!x32)_ZN6VectorIPN10DefaultMapImPS_IiEE5EntryEE4dumpEPKc@Base 2.41
 (optional=templinst|arch=!x32)_ZN6VectorIPN10DefaultMapImPS_IiEE5EntryEE4typeEv@Base 2.41
 (optional=templinst|arch=!x32)_ZN6VectorIPN10DefaultMapImPS_IiEE5EntryEE6insertElS5_@Base 2.41
 (optional=templinst|arch=!x32)_ZN6VectorIPN10DefaultMapImPS_IiEE5EntryEED0Ev@Base 2.41
 (optional=templinst|arch=!x32)_ZN6VectorIPN10DefaultMapImPS_IiEE5EntryEED1Ev@Base 2.41
 (optional=templinst|arch=!x32)_ZN6VectorIPN10DefaultMapImPS_IiEE5EntryEED2Ev@Base 2.41
 (optional=templinst|arch=!x32)_ZN6VectorIPN10DefaultMapImiE5EntryEE4dumpEPKc@Base 2.41
 (optional=templinst|arch=!x32)_ZN6VectorIPN10DefaultMapImiE5EntryEE4typeEv@Base 2.41
 (optional=templinst|arch=!x32)_ZN6VectorIPN10DefaultMapImiE5EntryEE6insertElS3_@Base 2.41
 (optional=templinst|arch=!x32)_ZN6VectorIPN10DefaultMapImiE5EntryEED0Ev@Base 2.41
 (optional=templinst|arch=!x32)_ZN6VectorIPN10DefaultMapImiE5EntryEED1Ev@Base 2.41
 (optional=templinst|arch=!x32)_ZN6VectorIPN10DefaultMapImiE5EntryEED2Ev@Base 2.41
 (optional=templinst|arch=i386)_ZN6VectorIPN10DefaultMapIxP8Dwr_typeE5EntryEE4dumpEPKc@Base 2.41
 (optional=templinst|arch=i386)_ZN6VectorIPN10DefaultMapIxP8Dwr_typeE5EntryEE4typeEv@Base 2.41
 (optional=templinst|arch=i386)_ZN6VectorIPN10DefaultMapIxP8Dwr_typeE5EntryEE6insertElS5_@Base 2.41
 (optional=templinst|arch=i386)_ZN6VectorIPN10DefaultMapIxP8Dwr_typeE5EntryEED0Ev@Base 2.41
 (optional=templinst|arch=i386)_ZN6VectorIPN10DefaultMapIxP8Dwr_typeE5EntryEED1Ev@Base 2.41
 (optional=templinst|arch=i386)_ZN6VectorIPN10DefaultMapIxP8Dwr_typeE5EntryEED2Ev@Base 2.41
 (optional=templinst|arch=i386)_ZN6VectorIPN10DefaultMapIxP8FileDataE5EntryEE4dumpEPKc@Base 2.41
 (optional=templinst|arch=i386)_ZN6VectorIPN10DefaultMapIxP8FileDataE5EntryEE4typeEv@Base 2.41
 (optional=templinst|arch=i386)_ZN6VectorIPN10DefaultMapIxP8FileDataE5EntryEE6insertElS5_@Base 2.41
 (optional=templinst|arch=i386)_ZN6VectorIPN10DefaultMapIxP8FileDataE5EntryEED0Ev@Base 2.41
 (optional=templinst|arch=i386)_ZN6VectorIPN10DefaultMapIxP8FileDataE5EntryEED1Ev@Base 2.41
 (optional=templinst|arch=i386)_ZN6VectorIPN10DefaultMapIxP8FileDataE5EntryEED2Ev@Base 2.41
 (optional=templinst|arch=!x32)_ZN6VectorIPN10DefaultMapIxPvE5EntryEE4dumpEPKc@Base 2.41
 (optional=templinst|arch=!x32)_ZN6VectorIPN10DefaultMapIxPvE5EntryEE4typeEv@Base 2.41
 (optional=templinst|arch=!x32)_ZN6VectorIPN10DefaultMapIxPvE5EntryEE6insertElS4_@Base 2.41
 (optional=templinst|arch=!x32)_ZN6VectorIPN10DefaultMapIxPvE5EntryEED0Ev@Base 2.41
 (optional=templinst|arch=!x32)_ZN6VectorIPN10DefaultMapIxPvE5EntryEED1Ev@Base 2.41
 (optional=templinst|arch=!x32)_ZN6VectorIPN10DefaultMapIxPvE5EntryEED2Ev@Base 2.41
 (optional=templinst|arch=!x32)_ZN6VectorIPN10DefaultMapIxlE5EntryEE4dumpEPKc@Base 2.41
 (optional=templinst|arch=!x32)_ZN6VectorIPN10DefaultMapIxlE5EntryEE4typeEv@Base 2.41
 (optional=templinst|arch=!x32)_ZN6VectorIPN10DefaultMapIxlE5EntryEE6insertElS3_@Base 2.41
 (optional=templinst|arch=!x32)_ZN6VectorIPN10DefaultMapIxlE5EntryEED0Ev@Base 2.41
 (optional=templinst|arch=!x32)_ZN6VectorIPN10DefaultMapIxlE5EntryEED1Ev@Base 2.41
 (optional=templinst|arch=!x32)_ZN6VectorIPN10DefaultMapIxlE5EntryEED2Ev@Base 2.41
 (optional=templinst|arch=!x32)_ZN6VectorIPN10DefaultMapIxmE5EntryEE4dumpEPKc@Base 2.41
 (optional=templinst|arch=!x32)_ZN6VectorIPN10DefaultMapIxmE5EntryEE4typeEv@Base 2.41
 (optional=templinst|arch=!x32)_ZN6VectorIPN10DefaultMapIxmE5EntryEE6insertElS3_@Base 2.41
 (optional=templinst|arch=!x32)_ZN6VectorIPN10DefaultMapIxmE5EntryEED0Ev@Base 2.41
 (optional=templinst|arch=!x32)_ZN6VectorIPN10DefaultMapIxmE5EntryEED1Ev@Base 2.41
 (optional=templinst|arch=!x32)_ZN6VectorIPN10DefaultMapIxmE5EntryEED2Ev@Base 2.41
 (optional=templinst|arch=!x32)_ZN6VectorIPN10DefaultMapIxxE5EntryEE4dumpEPKc@Base 2.41
 (optional=templinst|arch=!x32)_ZN6VectorIPN10DefaultMapIxxE5EntryEE4typeEv@Base 2.41
 (optional=templinst|arch=!x32)_ZN6VectorIPN10DefaultMapIxxE5EntryEE6insertElS3_@Base 2.41
 (optional=templinst|arch=!x32)_ZN6VectorIPN10DefaultMapIxxE5EntryEED0Ev@Base 2.41
 (optional=templinst|arch=!x32)_ZN6VectorIPN10DefaultMapIxxE5EntryEED1Ev@Base 2.41
 (optional=templinst|arch=!x32)_ZN6VectorIPN10DefaultMapIxxE5EntryEED2Ev@Base 2.41
 (optional=templinst|arch=i386)_ZN6VectorIPN10DefaultMapIxyE5EntryEE4dumpEPKc@Base 2.41
 (optional=templinst|arch=i386)_ZN6VectorIPN10DefaultMapIxyE5EntryEE4typeEv@Base 2.41
 (optional=templinst|arch=i386)_ZN6VectorIPN10DefaultMapIxyE5EntryEE6insertElS3_@Base 2.41
 (optional=templinst|arch=i386)_ZN6VectorIPN10DefaultMapIxyE5EntryEED0Ev@Base 2.41
 (optional=templinst|arch=i386)_ZN6VectorIPN10DefaultMapIxyE5EntryEED1Ev@Base 2.41
 (optional=templinst|arch=i386)_ZN6VectorIPN10DefaultMapIxyE5EntryEED2Ev@Base 2.41
 (optional=templinst|arch=i386)_ZN6VectorIPN10DefaultMapIyP8HeapDataE5EntryEE4dumpEPKc@Base 2.41
 (optional=templinst|arch=i386)_ZN6VectorIPN10DefaultMapIyP8HeapDataE5EntryEE4typeEv@Base 2.41
 (optional=templinst|arch=i386)_ZN6VectorIPN10DefaultMapIyP8HeapDataE5EntryEE6insertElS5_@Base 2.41
 (optional=templinst|arch=i386)_ZN6VectorIPN10DefaultMapIyP8HeapDataE5EntryEED0Ev@Base 2.41
 (optional=templinst|arch=i386)_ZN6VectorIPN10DefaultMapIyP8HeapDataE5EntryEED1Ev@Base 2.41
 (optional=templinst|arch=i386)_ZN6VectorIPN10DefaultMapIyP8HeapDataE5EntryEED2Ev@Base 2.41
 (optional=templinst|arch=i386)_ZN6VectorIPN10DefaultMapIyPS_IiEE5EntryEE4dumpEPKc@Base 2.41
 (optional=templinst|arch=i386)_ZN6VectorIPN10DefaultMapIyPS_IiEE5EntryEE4typeEv@Base 2.41
 (optional=templinst|arch=i386)_ZN6VectorIPN10DefaultMapIyPS_IiEE5EntryEE6insertElS5_@Base 2.41
 (optional=templinst|arch=i386)_ZN6VectorIPN10DefaultMapIyPS_IiEE5EntryEED0Ev@Base 2.41
 (optional=templinst|arch=i386)_ZN6VectorIPN10DefaultMapIyPS_IiEE5EntryEED1Ev@Base 2.41
 (optional=templinst|arch=i386)_ZN6VectorIPN10DefaultMapIyPS_IiEE5EntryEED2Ev@Base 2.41
 (optional=templinst|arch=i386)_ZN6VectorIPN10DefaultMapIyiE5EntryEE4dumpEPKc@Base 2.41
 (optional=templinst|arch=i386)_ZN6VectorIPN10DefaultMapIyiE5EntryEE4typeEv@Base 2.41
 (optional=templinst|arch=i386)_ZN6VectorIPN10DefaultMapIyiE5EntryEE6insertElS3_@Base 2.41
 (optional=templinst|arch=i386)_ZN6VectorIPN10DefaultMapIyiE5EntryEED0Ev@Base 2.41
 (optional=templinst|arch=i386)_ZN6VectorIPN10DefaultMapIyiE5EntryEED1Ev@Base 2.41
 (optional=templinst|arch=i386)_ZN6VectorIPN10DefaultMapIyiE5EntryEED2Ev@Base 2.41
 (optional=templinst|arch=!x32)_ZN6VectorIPN10Experiment14RawFramePacketEE4dumpEPKc@Base 2.41
 (optional=templinst|arch=!x32)_ZN6VectorIPN10Experiment14RawFramePacketEE4typeEv@Base 2.41
 (optional=templinst|arch=!x32)_ZN6VectorIPN10Experiment14RawFramePacketEED0Ev@Base 2.41
 (optional=templinst|arch=!x32)_ZN6VectorIPN10Experiment14RawFramePacketEED1Ev@Base 2.41
 (optional=templinst|arch=!x32)_ZN6VectorIPN10Experiment14RawFramePacketEED2Ev@Base 2.41
 (optional=templinst|arch=!x32)_ZN6VectorIPN10Experiment7UIDnodeEE4dumpEPKc@Base 2.41
 (optional=templinst|arch=!x32)_ZN6VectorIPN10Experiment7UIDnodeEE4typeEv@Base 2.41
 (optional=templinst|arch=!x32)_ZN6VectorIPN10Experiment7UIDnodeEED0Ev@Base 2.41
 (optional=templinst|arch=!x32)_ZN6VectorIPN10Experiment7UIDnodeEED1Ev@Base 2.41
 (optional=templinst|arch=!x32)_ZN6VectorIPN10Experiment7UIDnodeEED2Ev@Base 2.41
 (optional=templinst|arch=!x32)_ZN6VectorIPN10Experiment9MapRecordEE4dumpEPKc@Base 2.41
 (optional=templinst|arch=!x32)_ZN6VectorIPN10Experiment9MapRecordEE4typeEv@Base 2.41
 (optional=templinst|arch=!x32)_ZN6VectorIPN10Experiment9MapRecordEE6appendES2_@Base 2.41
 (optional=templinst|arch=!x32)_ZN6VectorIPN10Experiment9MapRecordEED0Ev@Base 2.41
 (optional=templinst|arch=!x32)_ZN6VectorIPN10Experiment9MapRecordEED1Ev@Base 2.41
 (optional=templinst|arch=!x32)_ZN6VectorIPN10Experiment9MapRecordEED2Ev@Base 2.41
 (optional=templinst|arch=!x32)_ZN6VectorIPN10Stats_data10Stats_itemEE4dumpEPKc@Base 2.41
 (optional=templinst|arch=!x32)_ZN6VectorIPN10Stats_data10Stats_itemEE4typeEv@Base 2.41
 (optional=templinst|arch=!x32)_ZN6VectorIPN10Stats_data10Stats_itemEE6appendES2_@Base 2.41
 (optional=templinst|arch=!x32)_ZN6VectorIPN10Stats_data10Stats_itemEED0Ev@Base 2.41
 (optional=templinst|arch=!x32)_ZN6VectorIPN10Stats_data10Stats_itemEED1Ev@Base 2.41
 (optional=templinst|arch=!x32)_ZN6VectorIPN10Stats_data10Stats_itemEED2Ev@Base 2.41
 (optional=templinst|arch=!x32)_ZN6VectorIPN11CStack_data11CStack_itemEE4dumpEPKc@Base 2.41
 (optional=templinst|arch=!x32)_ZN6VectorIPN11CStack_data11CStack_itemEE4typeEv@Base 2.41
 (optional=templinst|arch=!x32)_ZN6VectorIPN11CStack_data11CStack_itemEED0Ev@Base 2.41
 (optional=templinst|arch=!x32)_ZN6VectorIPN11CStack_data11CStack_itemEED1Ev@Base 2.41
 (optional=templinst|arch=!x32)_ZN6VectorIPN11CStack_data11CStack_itemEED2Ev@Base 2.41
 (optional=templinst|arch=!x32)_ZN6VectorIPN11IntervalMapIxPvE5EntryEE4dumpEPKc@Base 2.41
 (optional=templinst|arch=!x32)_ZN6VectorIPN11IntervalMapIxPvE5EntryEE4typeEv@Base 2.41
 (optional=templinst|arch=!x32)_ZN6VectorIPN11IntervalMapIxPvE5EntryEE6insertElS4_@Base 2.41
 (optional=templinst|arch=!x32)_ZN6VectorIPN11IntervalMapIxPvE5EntryEED0Ev@Base 2.41
 (optional=templinst|arch=!x32)_ZN6VectorIPN11IntervalMapIxPvE5EntryEED1Ev@Base 2.41
 (optional=templinst|arch=!x32)_ZN6VectorIPN11IntervalMapIxPvE5EntryEED2Ev@Base 2.41
 (optional=templinst|arch=!x32)_ZN6VectorIPN11IntervalMapIxmE5EntryEE4dumpEPKc@Base 2.41
 (optional=templinst|arch=!x32)_ZN6VectorIPN11IntervalMapIxmE5EntryEE4typeEv@Base 2.41
 (optional=templinst|arch=!x32)_ZN6VectorIPN11IntervalMapIxmE5EntryEE6insertElS3_@Base 2.41
 (optional=templinst|arch=!x32)_ZN6VectorIPN11IntervalMapIxmE5EntryEED0Ev@Base 2.41
 (optional=templinst|arch=!x32)_ZN6VectorIPN11IntervalMapIxmE5EntryEED1Ev@Base 2.41
 (optional=templinst|arch=!x32)_ZN6VectorIPN11IntervalMapIxmE5EntryEED2Ev@Base 2.41
 (optional=templinst|arch=i386)_ZN6VectorIPN11IntervalMapIxyE5EntryEE4dumpEPKc@Base 2.41
 (optional=templinst|arch=i386)_ZN6VectorIPN11IntervalMapIxyE5EntryEE4typeEv@Base 2.41
 (optional=templinst|arch=i386)_ZN6VectorIPN11IntervalMapIxyE5EntryEE6insertElS3_@Base 2.41
 (optional=templinst|arch=i386)_ZN6VectorIPN11IntervalMapIxyE5EntryEED0Ev@Base 2.41
 (optional=templinst|arch=i386)_ZN6VectorIPN11IntervalMapIxyE5EntryEED1Ev@Base 2.41
 (optional=templinst|arch=i386)_ZN6VectorIPN11IntervalMapIxyE5EntryEED2Ev@Base 2.41
 (optional=templinst|arch=!x32)_ZN6VectorIPN13FilterNumeric9RangePairEE4dumpEPKc@Base 2.41
 (optional=templinst|arch=!x32)_ZN6VectorIPN13FilterNumeric9RangePairEE4typeEv@Base 2.41
 (optional=templinst|arch=!x32)_ZN6VectorIPN13FilterNumeric9RangePairEE6appendES2_@Base 2.41
 (optional=templinst|arch=!x32)_ZN6VectorIPN13FilterNumeric9RangePairEED0Ev@Base 2.41
 (optional=templinst|arch=!x32)_ZN6VectorIPN13FilterNumeric9RangePairEED1Ev@Base 2.41
 (optional=templinst|arch=!x32)_ZN6VectorIPN13FilterNumeric9RangePairEED2Ev@Base 2.41
 (optional=templinst|arch=!x32)_ZN6VectorIPN7Include11SrcFileInfoEE4dumpEPKc@Base 2.41
 (optional=templinst|arch=!x32)_ZN6VectorIPN7Include11SrcFileInfoEE4typeEv@Base 2.41
 (optional=templinst|arch=!x32)_ZN6VectorIPN7Include11SrcFileInfoEE6appendES2_@Base 2.41
 (optional=templinst|arch=!x32)_ZN6VectorIPN7Include11SrcFileInfoEE6removeEl@Base 2.41
 (optional=templinst|arch=!x32)_ZN6VectorIPN7Include11SrcFileInfoEED0Ev@Base 2.41
 (optional=templinst|arch=!x32)_ZN6VectorIPN7Include11SrcFileInfoEED1Ev@Base 2.41
 (optional=templinst|arch=!x32)_ZN6VectorIPN7Include11SrcFileInfoEED2Ev@Base 2.41
 (optional=templinst|arch=!x32)_ZN6VectorIPN7PRBTree4LMapEE4dumpEPKc@Base 2.41
 (optional=templinst|arch=!x32)_ZN6VectorIPN7PRBTree4LMapEE4typeEv@Base 2.41
 (optional=templinst|arch=!x32)_ZN6VectorIPN7PRBTree4LMapEED0Ev@Base 2.41
 (optional=templinst|arch=!x32)_ZN6VectorIPN7PRBTree4LMapEED1Ev@Base 2.41
 (optional=templinst|arch=!x32)_ZN6VectorIPN7PRBTree4LMapEED2Ev@Base 2.41
 (optional=templinst|arch=!x32)_ZN6VectorIPN8ElfReloc6SrelocEE4dumpEPKc@Base 2.41
 (optional=templinst|arch=!x32)_ZN6VectorIPN8ElfReloc6SrelocEE4typeEv@Base 2.41
 (optional=templinst|arch=!x32)_ZN6VectorIPN8ElfReloc6SrelocEED0Ev@Base 2.41
 (optional=templinst|arch=!x32)_ZN6VectorIPN8ElfReloc6SrelocEED1Ev@Base 2.41
 (optional=templinst|arch=!x32)_ZN6VectorIPN8ElfReloc6SrelocEED2Ev@Base 2.41
 (optional=templinst|arch=!x32)_ZN6VectorIPN8Ovw_data8Ovw_itemEE4dumpEPKc@Base 2.41
 (optional=templinst|arch=!x32)_ZN6VectorIPN8Ovw_data8Ovw_itemEE4typeEv@Base 2.41
 (optional=templinst|arch=!x32)_ZN6VectorIPN8Ovw_data8Ovw_itemEED0Ev@Base 2.41
 (optional=templinst|arch=!x32)_ZN6VectorIPN8Ovw_data8Ovw_itemEED1Ev@Base 2.41
 (optional=templinst|arch=!x32)_ZN6VectorIPN8Ovw_data8Ovw_itemEED2Ev@Base 2.41
 (optional=templinst|arch=!x32)_ZN6VectorIPN9Hist_data8HistItemEE4dumpEPKc@Base 2.41
 (optional=templinst|arch=!x32)_ZN6VectorIPN9Hist_data8HistItemEE4typeEv@Base 2.41
 (optional=templinst|arch=!x32)_ZN6VectorIPN9Hist_data8HistItemEE6appendES2_@Base 2.41
 (optional=templinst|arch=!x32)_ZN6VectorIPN9Hist_data8HistItemEED0Ev@Base 2.41
 (optional=templinst|arch=!x32)_ZN6VectorIPN9Hist_data8HistItemEED1Ev@Base 2.41
 (optional=templinst|arch=!x32)_ZN6VectorIPN9Hist_data8HistItemEED2Ev@Base 2.41
 (optional=templinst|arch=!x32)_ZN6VectorIPN9StringMapIP10DbeJarFileE5EntryEE4dumpEPKc@Base 2.41
 (optional=templinst|arch=!x32)_ZN6VectorIPN9StringMapIP10DbeJarFileE5EntryEE4typeEv@Base 2.41
 (optional=templinst|arch=!x32)_ZN6VectorIPN9StringMapIP10DbeJarFileE5EntryEE6insertElS5_@Base 2.41
 (optional=templinst|arch=!x32)_ZN6VectorIPN9StringMapIP10DbeJarFileE5EntryEED0Ev@Base 2.41
 (optional=templinst|arch=!x32)_ZN6VectorIPN9StringMapIP10DbeJarFileE5EntryEED1Ev@Base 2.41
 (optional=templinst|arch=!x32)_ZN6VectorIPN9StringMapIP10DbeJarFileE5EntryEED2Ev@Base 2.41
 (optional=templinst|arch=!x32)_ZN6VectorIPN9StringMapIP10LoadObjectE5EntryEE4dumpEPKc@Base 2.41
 (optional=templinst|arch=!x32)_ZN6VectorIPN9StringMapIP10LoadObjectE5EntryEE4typeEv@Base 2.41
 (optional=templinst|arch=!x32)_ZN6VectorIPN9StringMapIP10LoadObjectE5EntryEE6insertElS5_@Base 2.41
 (optional=templinst|arch=!x32)_ZN6VectorIPN9StringMapIP10LoadObjectE5EntryEED0Ev@Base 2.41
 (optional=templinst|arch=!x32)_ZN6VectorIPN9StringMapIP10LoadObjectE5EntryEED1Ev@Base 2.41
 (optional=templinst|arch=!x32)_ZN6VectorIPN9StringMapIP10LoadObjectE5EntryEED2Ev@Base 2.41
 (optional=templinst|arch=!x32)_ZN6VectorIPN9StringMapIP10SourceFileE5EntryEE4dumpEPKc@Base 2.41
 (optional=templinst|arch=!x32)_ZN6VectorIPN9StringMapIP10SourceFileE5EntryEE4typeEv@Base 2.41
 (optional=templinst|arch=!x32)_ZN6VectorIPN9StringMapIP10SourceFileE5EntryEE6insertElS5_@Base 2.41
 (optional=templinst|arch=!x32)_ZN6VectorIPN9StringMapIP10SourceFileE5EntryEED0Ev@Base 2.41
 (optional=templinst|arch=!x32)_ZN6VectorIPN9StringMapIP10SourceFileE5EntryEED1Ev@Base 2.41
 (optional=templinst|arch=!x32)_ZN6VectorIPN9StringMapIP10SourceFileE5EntryEED2Ev@Base 2.41
 (optional=templinst|arch=!x32)_ZN6VectorIPN9StringMapIP6SymbolE5EntryEE4dumpEPKc@Base 2.41
 (optional=templinst|arch=!x32)_ZN6VectorIPN9StringMapIP6SymbolE5EntryEE4typeEv@Base 2.41
 (optional=templinst|arch=!x32)_ZN6VectorIPN9StringMapIP6SymbolE5EntryEE6insertElS5_@Base 2.41
 (optional=templinst|arch=!x32)_ZN6VectorIPN9StringMapIP6SymbolE5EntryEED0Ev@Base 2.41
 (optional=templinst|arch=!x32)_ZN6VectorIPN9StringMapIP6SymbolE5EntryEED1Ev@Base 2.41
 (optional=templinst|arch=!x32)_ZN6VectorIPN9StringMapIP6SymbolE5EntryEED2Ev@Base 2.41
 (optional=templinst|arch=!x32)_ZN6VectorIPN9StringMapIP7DbeFileE5EntryEE4dumpEPKc@Base 2.41
 (optional=templinst|arch=!x32)_ZN6VectorIPN9StringMapIP7DbeFileE5EntryEE4typeEv@Base 2.41
 (optional=templinst|arch=!x32)_ZN6VectorIPN9StringMapIP7DbeFileE5EntryEE6insertElS5_@Base 2.41
 (optional=templinst|arch=!x32)_ZN6VectorIPN9StringMapIP7DbeFileE5EntryEED0Ev@Base 2.41
 (optional=templinst|arch=!x32)_ZN6VectorIPN9StringMapIP7DbeFileE5EntryEED1Ev@Base 2.41
 (optional=templinst|arch=!x32)_ZN6VectorIPN9StringMapIP7DbeFileE5EntryEED2Ev@Base 2.41
 (optional=templinst|arch=!x32)_ZN6VectorIPN9StringMapIiE5EntryEE4dumpEPKc@Base 2.41
 (optional=templinst|arch=!x32)_ZN6VectorIPN9StringMapIiE5EntryEE4typeEv@Base 2.41
 (optional=templinst|arch=!x32)_ZN6VectorIPN9StringMapIiE5EntryEE6insertElS3_@Base 2.41
 (optional=templinst|arch=!x32)_ZN6VectorIPN9StringMapIiE5EntryEED0Ev@Base 2.41
 (optional=templinst|arch=!x32)_ZN6VectorIPN9StringMapIiE5EntryEED1Ev@Base 2.41
 (optional=templinst|arch=!x32)_ZN6VectorIPN9StringMapIiE5EntryEED2Ev@Base 2.41
 (optional=templinst|arch=!x32)_ZN6VectorIPS_IP8DataViewEE4dumpEPKc@Base 2.41
 (optional=templinst|arch=!x32)_ZN6VectorIPS_IP8DataViewEE4typeEv@Base 2.41
 (optional=templinst|arch=!x32)_ZN6VectorIPS_IP8DataViewEE5storeElS3_@Base 2.41
 (optional=templinst|arch=!x32)_ZN6VectorIPS_IP8DataViewEED0Ev@Base 2.41
 (optional=templinst|arch=!x32)_ZN6VectorIPS_IP8DataViewEED1Ev@Base 2.41
 (optional=templinst|arch=!x32)_ZN6VectorIPS_IP8DataViewEED2Ev@Base 2.41
 (optional=templinst|arch=!x32)_ZN6VectorIPS_IP8HistableEE4dumpEPKc@Base 2.41
 (optional=templinst|arch=!x32)_ZN6VectorIPS_IP8HistableEE4typeEv@Base 2.41
 (optional=templinst|arch=!x32)_ZN6VectorIPS_IP8HistableEE5storeElS3_@Base 2.41
 (optional=templinst|arch=!x32)_ZN6VectorIPS_IP8HistableEED0Ev@Base 2.41
 (optional=templinst|arch=!x32)_ZN6VectorIPS_IP8HistableEED1Ev@Base 2.41
 (optional=templinst|arch=!x32)_ZN6VectorIPS_IP8HistableEED2Ev@Base 2.41
 (optional=templinst|arch=!x32)_ZN6VectorIPS_IPcEE4dumpEPKc@Base 2.41
 (optional=templinst)_ZN6VectorIPS_IPcEE4typeEv@Base 2.41
 (optional=templinst|arch=!x32)_ZN6VectorIPS_IPcEE5storeElS2_@Base 2.41
 (optional=templinst|arch=!x32)_ZN6VectorIPS_IPcEED0Ev@Base 2.41
 (optional=templinst|arch=!x32)_ZN6VectorIPS_IPcEED1Ev@Base 2.41
 (optional=templinst|arch=!x32)_ZN6VectorIPS_IPcEED2Ev@Base 2.41
 (optional=templinst|arch=!x32)_ZN6VectorIPS_IiEE4dumpEPKc@Base 2.41
 (optional=templinst)_ZN6VectorIPS_IiEE4typeEv@Base 2.41
 (optional=templinst|arch=!x32)_ZN6VectorIPS_IiEE6resizeEl@Base 2.41
 (optional=templinst|arch=!x32)_ZN6VectorIPS_IiEED0Ev@Base 2.41
 (optional=templinst|arch=!x32)_ZN6VectorIPS_IiEED1Ev@Base 2.41
 (optional=templinst|arch=!x32)_ZN6VectorIPS_IiEED2Ev@Base 2.41
 (optional=templinst|arch=!x32)_ZN6VectorIPS_IlEE4dumpEPKc@Base 2.41
 (optional=templinst|arch=!x32)_ZN6VectorIPS_IlEE4typeEv@Base 2.41
 (optional=templinst|arch=!x32)_ZN6VectorIPS_IlEE5storeElS1_@Base 2.41
 (optional=templinst|arch=!x32)_ZN6VectorIPS_IlEED0Ev@Base 2.41
 (optional=templinst|arch=!x32)_ZN6VectorIPS_IlEED1Ev@Base 2.41
 (optional=templinst|arch=!x32)_ZN6VectorIPS_IlEED2Ev@Base 2.41
 (optional=templinst|arch=!x32)_ZN6VectorIPS_IxEE4dumpEPKc@Base 2.41
 (optional=templinst)_ZN6VectorIPS_IxEE4typeEv@Base 2.41
 (optional=templinst|arch=!x32)_ZN6VectorIPS_IxEE5storeElS1_@Base 2.41
 (optional=templinst|arch=!x32)_ZN6VectorIPS_IxEE6resizeEl@Base 2.41
 (optional=templinst|arch=!x32)_ZN6VectorIPS_IxEED0Ev@Base 2.41
 (optional=templinst|arch=!x32)_ZN6VectorIPS_IxEED1Ev@Base 2.41
 (optional=templinst|arch=!x32)_ZN6VectorIPS_IxEED2Ev@Base 2.41
 (optional=templinst|arch=!x32)_ZN6VectorIPcE4dumpEPKc@Base 2.41
 (optional=templinst)_ZN6VectorIPcE4typeEv@Base 2.41
 (optional=templinst|arch=!x32)_ZN6VectorIPcE5storeElS0_@Base 2.41
 (optional=templinst|arch=!x32)_ZN6VectorIPcE6appendES0_@Base 2.41
 (optional=templinst|arch=!x32)_ZN6VectorIPcE6resizeEl@Base 2.41
 (optional=templinst|arch=!x32)_ZN6VectorIPcED0Ev@Base 2.41
 (optional=templinst|arch=!x32)_ZN6VectorIPcED1Ev@Base 2.41
 (optional=templinst|arch=!x32)_ZN6VectorIPcED2Ev@Base 2.41
 (optional=templinst|arch=!x32)_ZN6VectorIPvE4dumpEPKc@Base 2.41
 (optional=templinst)_ZN6VectorIPvE4typeEv@Base 2.41
 (optional=templinst|arch=!x32)_ZN6VectorIPvE5storeElS0_@Base 2.41
 (optional=templinst|arch=!x32)_ZN6VectorIPvE6resizeEl@Base 2.41
 (optional=templinst|arch=!x32)_ZN6VectorIPvED0Ev@Base 2.41
 (optional=templinst|arch=!x32)_ZN6VectorIPvED1Ev@Base 2.41
 (optional=templinst|arch=!x32)_ZN6VectorIPvED2Ev@Base 2.41
 (optional=templinst|arch=!x32)_ZN6VectorIbE4dumpEPKc@Base 2.41
 (optional=templinst)_ZN6VectorIbE4typeEv@Base 2.41
 (optional=templinst|arch=!x32)_ZN6VectorIbE6resizeEl@Base 2.41
 (optional=templinst|arch=!x32)_ZN6VectorIbED0Ev@Base 2.41
 (optional=templinst|arch=!x32)_ZN6VectorIbED1Ev@Base 2.41
 (optional=templinst|arch=!x32)_ZN6VectorIbED2Ev@Base 2.41
 (optional=templinst|arch=!x32)_ZN6VectorIcE4dumpEPKc@Base 2.41
 (optional=templinst)_ZN6VectorIcE4typeEv@Base 2.41
 (optional=templinst|arch=!x32)_ZN6VectorIcE5storeElc@Base 2.41
 (optional=templinst|arch=!x32)_ZN6VectorIcED0Ev@Base 2.41
 (optional=templinst|arch=!x32)_ZN6VectorIcED1Ev@Base 2.41
 (optional=templinst|arch=!x32)_ZN6VectorIcED2Ev@Base 2.41
 (optional=templinst|arch=!x32)_ZN6VectorIdE4dumpEPKc@Base 2.41
 (optional=templinst)_ZN6VectorIdE4typeEv@Base 2.41
 (optional=templinst|arch=!x32)_ZN6VectorIdE5storeEld@Base 2.41
 (optional=templinst|arch=!x32)_ZN6VectorIdE6resizeEl@Base 2.41
 (optional=templinst|arch=!x32)_ZN6VectorIdED0Ev@Base 2.41
 (optional=templinst|arch=!x32)_ZN6VectorIdED1Ev@Base 2.41
 (optional=templinst|arch=!x32)_ZN6VectorIdED2Ev@Base 2.41
 (optional=templinst|arch=!x32)_ZN6VectorIiE4dumpEPKc@Base 2.41
 (optional=templinst)_ZN6VectorIiE4typeEv@Base 2.41
 (optional=templinst|arch=!x32)_ZN6VectorIiE5storeEli@Base 2.41
 (optional=templinst|arch=!x32)_ZN6VectorIiE6appendEi@Base 2.41
 (optional=templinst|arch=!x32)_ZN6VectorIiE6resizeEl@Base 2.41
 (optional=templinst|arch=!x32)_ZN6VectorIiED0Ev@Base 2.41
 (optional=templinst|arch=!x32)_ZN6VectorIiED1Ev@Base 2.41
 (optional=templinst|arch=!x32)_ZN6VectorIiED2Ev@Base 2.41
 (optional=templinst|arch=!x32)_ZN6VectorIjE4dumpEPKc@Base 2.41
 (optional=templinst)_ZN6VectorIjE4typeEv@Base 2.41
 (optional=templinst|arch=!x32)_ZN6VectorIjE5storeElj@Base 2.41
 (optional=templinst|arch=!x32)_ZN6VectorIjED0Ev@Base 2.41
 (optional=templinst|arch=!x32)_ZN6VectorIjED1Ev@Base 2.41
 (optional=templinst|arch=!x32)_ZN6VectorIjED2Ev@Base 2.41
 (optional=templinst|arch=!x32)_ZN6VectorIlE4dumpEPKc@Base 2.41
 (optional=templinst|arch=!x32)_ZN6VectorIlE4typeEv@Base 2.41
 (optional=templinst|arch=!x32)_ZN6VectorIlE5storeEll@Base 2.41
 (optional=templinst|arch=!x32)_ZN6VectorIlE6appendEl@Base 2.41
 (optional=templinst|arch=!x32)_ZN6VectorIlE6resizeEl@Base 2.41
 (optional=templinst|arch=!x32)_ZN6VectorIlED0Ev@Base 2.41
 (optional=templinst|arch=!x32)_ZN6VectorIlED1Ev@Base 2.41
 (optional=templinst|arch=!x32)_ZN6VectorIlED2Ev@Base 2.41
 (optional=templinst|arch=!x32)_ZN6VectorImE4dumpEPKc@Base 2.41
 (optional=templinst|arch=!x32)_ZN6VectorImE4typeEv@Base 2.41
 (optional=templinst|arch=!x32)_ZN6VectorImE5storeElm@Base 2.41
 (optional=templinst|arch=!x32)_ZN6VectorImE6appendEm@Base 2.41
 (optional=templinst|arch=!x32)_ZN6VectorImE6resizeEl@Base 2.41
 (optional=templinst|arch=!x32)_ZN6VectorImED0Ev@Base 2.41
 (optional=templinst|arch=!x32)_ZN6VectorImED1Ev@Base 2.41
 (optional=templinst|arch=!x32)_ZN6VectorImED2Ev@Base 2.41
 (optional=templinst|arch=!x32)_ZN6VectorIxE4dumpEPKc@Base 2.41
 (optional=templinst)_ZN6VectorIxE4typeEv@Base 2.41
 (optional=templinst|arch=!x32)_ZN6VectorIxE5storeElx@Base 2.41
 (optional=templinst|arch=!x32)_ZN6VectorIxE6appendEx@Base 2.41
 (optional=templinst|arch=arm64)_ZN6VectorIxE6insertElx@Base 2.41
 (optional=templinst|arch=!x32)_ZN6VectorIxE6resizeEl@Base 2.41
 (optional=templinst|arch=!x32)_ZN6VectorIxED0Ev@Base 2.41
 (optional=templinst|arch=!x32)_ZN6VectorIxED1Ev@Base 2.41
 (optional=templinst|arch=!x32)_ZN6VectorIxED2Ev@Base 2.41
 (optional=templinst|arch=!x32)_ZN6VectorIyE4dumpEPKc@Base 2.41
 (optional=templinst)_ZN6VectorIyE4typeEv@Base 2.41
 (optional=templinst|arch=i386)_ZN6VectorIyE5storeEly@Base 2.41
 (optional=templinst|arch=!x32)_ZN6VectorIyE6appendEy@Base 2.41
 (optional=templinst|arch=i386)_ZN6VectorIyE6resizeEl@Base 2.41
 (optional=templinst|arch=!x32)_ZN6VectorIyED0Ev@Base 2.41
 (optional=templinst|arch=!x32)_ZN6VectorIyED1Ev@Base 2.41
 (optional=templinst|arch=!x32)_ZN6VectorIyED2Ev@Base 2.41
 _ZN7Command10print_helpEPcbbP8_IO_FILE@Base 2.41
 _ZN7Command11DEFAULT_CMDE@Base 2.41
 _ZN7Command11get_cmd_strE7CmdType@Base 2.41
 _ZN7Command11get_commandEPcRiS1_@Base 2.41
 _ZN7Command12DEFAULT_SORTE@Base 2.41
 _ZN7Command14get_err_stringE10Cmd_status@Base 2.41
 _ZN7Command15DEFAULT_METRICSE@Base 2.41
 _ZN7Command7ALL_CMDE@Base 2.41
 _ZN7Command7ANY_CMDE@Base 2.41
 _ZN7Command7BIT_CMDE@Base 2.41
 _ZN7Command7HWC_CMDE@Base 2.41
 _ZN7Command8NONE_CMDE@Base 2.41
 _ZN7Command8fmt_helpEic@Base 2.41
 _ZN7Command9init_descEv@Base 2.41
 _ZN7DbeFile10isJarOrZipEPKc@Base 2.41
 _ZN7DbeFile12check_accessEPKc@Base 2.41
 _ZN7DbeFile12get_jar_fileEv@Base 2.41
 _ZN7DbeFile12get_locationEb@Base 2.41
 _ZN7DbeFile12set_locationEPKc@Base 2.41
 _ZN7DbeFile13getJarDbeFileEPci@Base 2.41
 _ZN7DbeFile15find_in_pathmapEPc@Base 2.41
 _ZN7DbeFile15find_in_setpathEPcP6VectorIS0_E@Base 2.41
 _ZN7DbeFile15getResolvedPathEv@Base 2.41
 _ZN7DbeFile15set_need_refindEb@Base 2.41
 _ZN7DbeFile16find_in_archivesEPc@Base 2.41
 _ZN7DbeFile16find_in_jar_fileEPKcP10DbeJarFile@Base 2.41
 _ZN7DbeFile17find_in_classpathEPcP6VectorIPS_E@Base 2.41
 _ZN7DbeFile17find_in_directoryEPKcS1_@Base 2.41
 _ZN7DbeFile17find_package_nameEPKcS1_@Base 2.41
 _ZN7DbeFile17get_location_infoEv@Base 2.41
 _ZN7DbeFile7compareEPS_@Base 2.41
 _ZN7DbeFile8get_statEv@Base 2.41
 _ZN7DbeFile9find_fileEPKc@Base 2.41
 _ZN7DbeFileC1EPKc@Base 2.41
 _ZN7DbeFileC2EPKc@Base 2.41
 _ZN7DbeFileD1Ev@Base 2.41
 _ZN7DbeFileD2Ev@Base 2.41
 (arch=!x32)_ZN7DbeLine11init_OffsetEm@Base 2.41
 (arch=i386 x32)_ZN7DbeLine11init_OffsetEy@Base 2.41
 _ZN7DbeLine8get_addrEv@Base 2.41
 _ZN7DbeLine8get_nameEN8Histable10NameFormatE@Base 2.41
 _ZN7DbeLine8get_sizeEv@Base 2.41
 (arch=!x32)_ZN7DbeLine8get_typeEv@Base 2.41
 _ZN7DbeLine8line_cmpEPS_@Base 2.41
 _ZN7DbeLine9converttoEN8Histable4TypeEPS0_@Base 2.41
 _ZN7DbeLineC1EP8FunctionP10SourceFilei@Base 2.41
 _ZN7DbeLineC2EP8FunctionP10SourceFilei@Base 2.41
 _ZN7DbeLineD0Ev@Base 2.41
 _ZN7DbeLineD1Ev@Base 2.41
 _ZN7DbeLineD2Ev@Base 2.41
 _ZN7DbeLock10aquireLockEv@Base 2.41
 _ZN7DbeLock11releaseLockEv@Base 2.41
 _ZN7DbeLockC1Ev@Base 2.41
 _ZN7DbeLockC2Ev@Base 2.41
 _ZN7DbeLockD1Ev@Base 2.41
 _ZN7DbeLockD2Ev@Base 2.41
 _ZN7DbeView10dump_nodesEP8_IO_FILE@Base 2.41
 _ZN7DbeView10getSortCmdE10MetricType@Base 2.41
 _ZN7DbeView10get_filterEv@Base 2.41
 _ZN7DbeView10reset_dataEb@Base 2.41
 _ZN7DbeView10resortDataE10MetricType@Base 2.41
 _ZN7DbeView10setMetricsEPcb@Base 2.41
 _ZN7DbeView10set_filterEPKc@Base 2.41
 _ZN7DbeView10status_strENS_14DbeView_statusE@Base 2.41
 _ZN7DbeView11get_sel_indEP8Histableii@Base 2.41
 _ZN7DbeView11get_sel_objEN8Histable4TypeE@Base 2.41
 _ZN7DbeView11set_en_descEPcb@Base 2.41
 _ZN7DbeView11set_patternEiP6VectorIPcEPb@Base 2.41
 _ZN7DbeView11set_patternEiPc@Base 2.41
 _ZN7DbeView11set_sel_objEP8Histable@Base 2.41
 _ZN7DbeView12dump_iotraceEP8_IO_FILE@Base 2.41
 _ZN7DbeView12dump_profileEP8_IO_FILE@Base 2.41
 _ZN7DbeView12get_ovw_dataEi@Base 2.41
 _ZN7DbeView12purge_eventsEi@Base 2.41
 _ZN7DbeView13addIndexSpaceEi@Base 2.41
 _ZN7DbeView13adjust_filterEP10Experiment@Base 2.41
 _ZN7DbeView13get_FilterExpEP10Experiment@Base 2.41
 _ZN7DbeView13get_hist_dataEP10MetricListN8Histable4TypeEiN9Hist_data4ModeEP6VectorIPS2_ES7_S9_N8PathTree18PtreeComputeOptionE@Base 2.41
 _ZN7DbeView13get_hist_dataEP10MetricListN8Histable4TypeEiN9Hist_data4ModeEPS2_S6_P6VectorIS6_EN8PathTree18PtreeComputeOptionE@Base 2.41
 _ZN7DbeView13get_lo_expandEi@Base 2.41
 _ZN7DbeView13get_mobj_nameEi@Base 2.41
 _ZN7DbeView13reset_metricsEv@Base 2.41
 _ZN7DbeView13set_libexpandEPc9LibExpand@Base 2.41
 _ZN7DbeView13set_lo_expandEi9LibExpand@Base 2.41
 _ZN7DbeView13set_view_modeE5VMode@Base 2.41
 _ZN7DbeView13set_view_modeEPcb@Base 2.41
 _ZN7DbeView14addMemorySpaceEi@Base 2.41
 _ZN7DbeView14add_experimentEib@Base 2.41
 _ZN7DbeView14dump_gc_eventsEP8_IO_FILE@Base 2.41
 _ZN7DbeView14getMemorySpaceEi@Base 2.41
 _ZN7DbeView14get_exp_enableEi@Base 2.41
 _ZN7DbeView14get_filter_setEi@Base 2.41
 _ZN7DbeView14get_metric_refE10MetricType@Base 2.41
 (arch=!x32)_ZN7DbeView14get_sel_obj_ioEmN8Histable4TypeE@Base 2.41
 (arch=i386 x32)_ZN7DbeView14get_sel_obj_ioEyN8Histable4TypeE@Base 2.41
 _ZN7DbeView14get_stats_dataEi@Base 2.41
 _ZN7DbeView14set_exp_enableEib@Base 2.41
 _ZN7DbeView15drop_experimentEi@Base 2.41
 _ZN7DbeView15get_all_filtersEi@Base 2.41
 _ZN7DbeView15get_compare_objEP8Histable@Base 2.41
 _ZN7DbeView15get_cstack_dataEP10MetricList@Base 2.41
 _ZN7DbeView15get_indxobj_selEi@Base 2.41
 _ZN7DbeView15get_metric_listE10MetricType@Base 2.41
 _ZN7DbeView15get_metric_listE10MetricTypebi@Base 2.41
 _ZN7DbeView15get_metric_listEii@Base 2.41
 _ZN7DbeView15set_indxobj_selEii@Base 2.41
 _ZN7DbeView15set_libdefaultsEv@Base 2.41
 _ZN7DbeView16backtrack_filterEv@Base 2.41
 _ZN7DbeView16get_indxobj_dataEi@Base 2.41
 (arch=!x32)_ZN7DbeView16get_sel_obj_heapEm@Base 2.41
 (arch=i386 x32)_ZN7DbeView16get_sel_obj_heapEy@Base 2.41
 _ZN7DbeView16set_compare_modeEi@Base 2.41
 _ZN7DbeView17add_subexperimentEib@Base 2.41
 _ZN7DbeView17get_FilterNumericEii@Base 2.41
 _ZN7DbeView17get_compare_mlistEP10MetricListi@Base 2.41
 _ZN7DbeView17get_processor_msgEi@Base 2.41
 _ZN7DbeView17reset_metric_listEP10MetricListi@Base 2.41
 _ZN7DbeView17update_lo_expandsEv@Base 2.41
 _ZN7DbeView18get_compare_metricEP6Metrici@Base 2.41
 _ZN7DbeView19add_compare_metricsEP10MetricList@Base 2.41
 _ZN7DbeView19get_advanced_filterEv@Base 2.41
 _ZN7DbeView19get_all_reg_metricsEv@Base 2.41
 _ZN7DbeView19get_filtered_eventsEii@Base 2.41
 _ZN7DbeView19get_filtered_eventsEiiPKii@Base 2.41
 _ZN7DbeView20comparingExperimentsEv@Base 2.41
 _ZN7DbeView20convert_line_to_funcEP7DbeLine@Base 2.41
 _ZN7DbeView20register_metric_exprEN10BaseMetric4TypeEPcS2_@Base 2.41
 _ZN7DbeView21convert_func_to_instrEP8Function@Base 2.41
 _ZN7DbeView21convert_line_to_instrEP7DbeLine@Base 2.41
 _ZN7DbeView22constructShowHideStackEP14DataDescriptorP10Experiment@Base 2.41
 _ZN7DbeView22remove_compare_metricsEP10MetricList@Base 2.41
 _ZN7DbeView22update_advanced_filterEv@Base 2.41
 _ZN7DbeView23add_experiment_epilogueEv@Base 2.41
 _ZN7DbeView30resetAndConstructShowHideStackEP10Experiment@Base 2.41
 _ZN7DbeView31resetAndConstructShowHideStacksEv@Base 2.41
 _ZN7DbeView4initEv@Base 2.41
 _ZN7DbeView5ifreqEP8_IO_FILE@Base 2.41
 _ZN7DbeView5resetEv@Base 2.41
 _ZN7DbeView7getSortE10MetricType@Base 2.41
 _ZN7DbeView7setSortEPc10MetricTypeb@Base 2.41
 _ZN7DbeView7setSortEi10MetricTypeb@Base 2.41
 _ZN7DbeView8dump_hwcEP8_IO_FILE@Base 2.41
 _ZN7DbeView8get_dataEP10MetricListP8Histableii@Base 2.41
 _ZN7DbeView9dump_heapEP8_IO_FILE@Base 2.41
 _ZN7DbeView9dump_syncEP8_IO_FILE@Base 2.41
 _ZN7DbeViewC1EP11ApplicationP8Settingsi@Base 2.41
 _ZN7DbeViewC1EPS_i@Base 2.41
 _ZN7DbeViewC2EP11ApplicationP8Settingsi@Base 2.41
 _ZN7DbeViewC2EPS_i@Base 2.41
 _ZN7DbeViewD1Ev@Base 2.41
 _ZN7DbeViewD2Ev@Base 2.41
 _ZN7DwrLineC1Ev@Base 2.41
 _ZN7DwrLineC2Ev@Base 2.41
 _ZN7DwrLineD1Ev@Base 2.41
 _ZN7DwrLineD2Ev@Base 2.41
 _ZN7Dwr_Tag4dumpEv@Base 2.41
 _ZN7Dwr_Tag8get_attrEt@Base 2.41
 (optional=templinst|arch=!x32)_ZN7HashMapIP8HistablePN9Hist_data8HistItemEE6resizeEv@Base 2.41
 (optional=templinst|arch=!x32)_ZN7HashMapIPcP10LoadObjectE5clearEv@Base 2.41
 (optional=templinst|arch=!x32)_ZN7HashMapIPcP10SourceFileE3getES0_S2_@Base 2.41
 (optional=templinst|arch=!x32)_ZN7HashMapIPcP10SourceFileE5clearEv@Base 2.41
 (optional=templinst|arch=!x32)_ZN7HashMapIPcP10SourceFileE6resizeEv@Base 2.41
 (optional=templinst|arch=!x32)_ZN7HashMapIPcP10SourceFileEC1Ei@Base 2.41
 (optional=templinst|arch=!x32)_ZN7HashMapIPcP10SourceFileEC2Ei@Base 2.41
 (optional=templinst|arch=!x32)_ZN7HashMapIPcP6ModuleE3getES0_@Base 2.41
 (optional=templinst|arch=!x32)_ZN7HashMapIPcP6ModuleE6resizeEv@Base 2.41
 (optional=templinst|arch=!x32)_ZN7HashMapIPcP6ModuleEC1Ei@Base 2.41
 (optional=templinst|arch=!x32)_ZN7HashMapIPcP6ModuleEC2Ei@Base 2.41
 (optional=templinst|arch=!x32)_ZN7HashMapIPcP7DbeLineE3getES0_S2_@Base 2.41
 (optional=templinst|arch=!x32)_ZN7HashMapIPcP7DbeLineE5clearEv@Base 2.41
 (optional=templinst|arch=!x32)_ZN7HashMapIPcP8FileDataE6resizeEv@Base 2.41
 (optional=templinst|arch=!x32)_ZN7HashMapImP6MemObjE6resizeEv@Base 2.41
 (optional=templinst|arch=!x32)_ZN7HashMapImP6MemObjEC1Ei@Base 2.41
 (optional=templinst|arch=!x32)_ZN7HashMapImP6MemObjEC2Ei@Base 2.41
 (optional=templinst|arch=!x32)_ZN7HashMapImP8HistableE5clearEv@Base 2.41
 (optional=templinst|arch=!x32)_ZN7HashMapImP8HistableE6resizeEv@Base 2.41
 (optional=templinst|arch=i386)_ZN7HashMapIyP6MemObjE6resizeEv@Base 2.41
 (optional=templinst|arch=i386)_ZN7HashMapIyP6MemObjEC1Ei@Base 2.41
 (optional=templinst|arch=i386)_ZN7HashMapIyP6MemObjEC2Ei@Base 2.41
 (optional=templinst|arch=i386)_ZN7HashMapIyP8HistableE5clearEv@Base 2.41
 (optional=templinst|arch=i386)_ZN7HashMapIyP8HistableE6resizeEv@Base 2.41
 (arch=!x32)_ZN7HeapMap10deallocateEm@Base 2.41
 (arch=i386 x32)_ZN7HeapMap10deallocateEy@Base 2.41
 _ZN7HeapMap10getHeapObjEv@Base 2.41
 _ZN7HeapMap13allocateChunkEv@Base 2.41
 _ZN7HeapMap14releaseHeapObjEP7HeapObj@Base 2.41
 (arch=!x32)_ZN7HeapMap4mmapEmll@Base 2.41
 (arch=i386 x32)_ZN7HeapMap4mmapEyxl@Base 2.41
 (arch=!x32)_ZN7HeapMap6munmapEml@Base 2.41
 (arch=i386 x32)_ZN7HeapMap6munmapEyx@Base 2.41
 (arch=!x32)_ZN7HeapMap7processEP7HeapObjml@Base 2.41
 (arch=i386 x32)_ZN7HeapMap7processEP7HeapObjyx@Base 2.41
 (arch=!x32)_ZN7HeapMap8allocateEml@Base 2.41
 (arch=i386 x32)_ZN7HeapMap8allocateEyl@Base 2.41
 _ZN7HeapMapC1Ev@Base 2.41
 _ZN7HeapMapC2Ev@Base 2.41
 _ZN7HeapMapD1Ev@Base 2.41
 _ZN7HeapMapD2Ev@Base 2.41
 _ZN7Include12new_src_fileEP10SourceFileiP8Function@Base 2.41
 _ZN7Include14push_src_filesEP8Function@Base 2.41
 _ZN7Include16end_include_fileEP8Function@Base 2.41
 _ZN7Include16new_include_fileEP10SourceFileP8Function@Base 2.41
 _ZN7IncludeC1Ev@Base 2.41
 _ZN7IncludeC2Ev@Base 2.41
 _ZN7IncludeD1Ev@Base 2.41
 _ZN7IncludeD2Ev@Base 2.41
 _ZN7JMethod8get_addrEv@Base 2.41
 _ZN7JMethod8set_nameEPc@Base 2.41
 _ZN7JMethod9jni_matchEP8Function@Base 2.41
 (arch=!x32)_ZN7JMethodC1Em@Base 2.41
 (arch=i386 x32)_ZN7JMethodC1Ey@Base 2.41
 (arch=!x32)_ZN7JMethodC2Em@Base 2.41
 (arch=i386 x32)_ZN7JMethodC2Ey@Base 2.41
 _ZN7JMethodD0Ev@Base 2.41
 _ZN7JMethodD1Ev@Base 2.41
 _ZN7JMethodD2Ev@Base 2.41
 _ZN7JThread9is_systemEv@Base 2.41
 _ZN7PRBTree11rb_fix_chldEPNS_4LMapES1_NS_9DirectionE@Base 2.41
 _ZN7PRBTree11rb_neighborEPNS_4LMapEx@Base 2.41
 _ZN7PRBTree11rb_new_nodeEPNS_4LMapE@Base 2.41
 _ZN7PRBTree11rb_new_nodeEyPv@Base 2.41
 _ZN7PRBTree12rb_copy_nodeEPNS_4LMapENS_9DirectionE@Base 2.41
 _ZN7PRBTree13rb_which_chldEPNS_4LMapE@Base 2.41
 _ZN7PRBTree15rb_remove_fixupEPNS_4LMapES1_NS_9DirectionE@Base 2.41
 _ZN7PRBTree18locate_exact_matchEyx@Base 2.41
 _ZN7PRBTree4LMapC1ERKS0_@Base 2.41
 _ZN7PRBTree4LMapC1EyPv@Base 2.41
 _ZN7PRBTree4LMapC2ERKS0_@Base 2.41
 _ZN7PRBTree4LMapC2EyPv@Base 2.41
 _ZN7PRBTree6insertEyxPv@Base 2.41
 _ZN7PRBTree6locateEyx@Base 2.41
 _ZN7PRBTree6removeEyx@Base 2.41
 _ZN7PRBTree6valuesEv@Base 2.41
 _ZN7PRBTree8rb_childEPNS_4LMapENS_9DirectionEx@Base 2.41
 _ZN7PRBTree9locate_upEyx@Base 2.41
 _ZN7PRBTree9rb_locateEyxb@Base 2.41
 _ZN7PRBTree9rb_rotateEPNS_4LMapENS_9DirectionE@Base 2.41
 _ZN7PRBTreeC1Ev@Base 2.41
 _ZN7PRBTreeC2Ev@Base 2.41
 _ZN7PRBTreeD1Ev@Base 2.41
 _ZN7PRBTreeD2Ev@Base 2.41
 _ZN7PrUsage10bind32SizeEv@Base 2.41
 _ZN7PrUsage10bind64SizeEv@Base 2.41
 _ZN7PrUsage15getMstateValuesEv@Base 2.41
 _ZN7PrUsage6bind32EPvb@Base 2.41
 _ZN7PrUsage6bind64EPvb@Base 2.41
 _ZN7PrUsageC1Ev@Base 2.41
 _ZN7PrUsageC2Ev@Base 2.41
 (optional=templinst|arch=!x32)_ZN8CacheMapImP13CallStackNodeE3getEm@Base 2.41
 (optional=templinst|arch=!x32)_ZN8CacheMapImP13CallStackNodeE3getEmN3MapImS1_E8RelationE@Base 2.41
 (optional=templinst|arch=!x32)_ZN8CacheMapImP13CallStackNodeE3putEmS1_@Base 2.41
 (optional=templinst|arch=!x32)_ZN8CacheMapImP13CallStackNodeE6removeEm@Base 2.41
 (optional=templinst|arch=!x32)_ZN8CacheMapImP13CallStackNodeED0Ev@Base 2.41
 (optional=templinst|arch=!x32)_ZN8CacheMapImP13CallStackNodeED1Ev@Base 2.41
 (optional=templinst|arch=!x32)_ZN8CacheMapImP13CallStackNodeED2Ev@Base 2.41
 (optional=templinst|arch=!x32)_ZN8CacheMapImlE3getEm@Base 2.41
 (optional=templinst|arch=!x32)_ZN8CacheMapImlE3getEmN3MapImlE8RelationE@Base 2.41
 (optional=templinst|arch=!x32)_ZN8CacheMapImlE3putEml@Base 2.41
 (optional=templinst|arch=!x32)_ZN8CacheMapImlE6removeEm@Base 2.41
 (optional=templinst|arch=!x32)_ZN8CacheMapImlED0Ev@Base 2.41
 (optional=templinst|arch=!x32)_ZN8CacheMapImlED1Ev@Base 2.41
 (optional=templinst|arch=!x32)_ZN8CacheMapImlED2Ev@Base 2.41
 (optional=templinst|arch=!x32)_ZN8CacheMapImmE3getEm@Base 2.41
 (optional=templinst|arch=!x32)_ZN8CacheMapImmE3getEmN3MapImmE8RelationE@Base 2.41
 (optional=templinst|arch=!x32)_ZN8CacheMapImmE3putEmm@Base 2.41
 (optional=templinst|arch=!x32)_ZN8CacheMapImmE6removeEm@Base 2.41
 (optional=templinst|arch=!x32)_ZN8CacheMapImmEC1Ev@Base 2.41
 (optional=templinst|arch=!x32)_ZN8CacheMapImmEC2Ev@Base 2.41
 (optional=templinst|arch=!x32)_ZN8CacheMapImmED0Ev@Base 2.41
 (optional=templinst|arch=!x32)_ZN8CacheMapImmED1Ev@Base 2.41
 (optional=templinst|arch=!x32)_ZN8CacheMapImmED2Ev@Base 2.41
 (optional=templinst|arch=i386)_ZN8CacheMapIyP13CallStackNodeE3getEy@Base 2.41
 (optional=templinst|arch=i386)_ZN8CacheMapIyP13CallStackNodeE3getEyN3MapIyS1_E8RelationE@Base 2.41
 (optional=templinst|arch=i386)_ZN8CacheMapIyP13CallStackNodeE3putEyS1_@Base 2.41
 (optional=templinst|arch=i386)_ZN8CacheMapIyP13CallStackNodeE6removeEy@Base 2.41
 (optional=templinst|arch=i386)_ZN8CacheMapIyP13CallStackNodeE8getEntryEy@Base 2.41
 (optional=templinst|arch=i386)_ZN8CacheMapIyP13CallStackNodeED0Ev@Base 2.41
 (optional=templinst|arch=i386)_ZN8CacheMapIyP13CallStackNodeED1Ev@Base 2.41
 (optional=templinst|arch=i386)_ZN8CacheMapIyP13CallStackNodeED2Ev@Base 2.41
 (optional=templinst|arch=i386)_ZN8CacheMapIylE3getEy@Base 2.41
 (optional=templinst|arch=i386)_ZN8CacheMapIylE3getEyN3MapIylE8RelationE@Base 2.41
 (optional=templinst|arch=i386)_ZN8CacheMapIylE3putEyl@Base 2.41
 (optional=templinst|arch=i386)_ZN8CacheMapIylE6removeEy@Base 2.41
 (optional=templinst|arch=i386)_ZN8CacheMapIylE8getEntryEy@Base 2.41
 (optional=templinst|arch=i386)_ZN8CacheMapIylED0Ev@Base 2.41
 (optional=templinst|arch=i386)_ZN8CacheMapIylED1Ev@Base 2.41
 (optional=templinst|arch=i386)_ZN8CacheMapIylED2Ev@Base 2.41
 (optional=templinst|arch=i386)_ZN8CacheMapIyyE3getEy@Base 2.41
 (optional=templinst|arch=i386)_ZN8CacheMapIyyE3getEyN3MapIyyE8RelationE@Base 2.41
 (optional=templinst|arch=i386)_ZN8CacheMapIyyE3putEyy@Base 2.41
 (optional=templinst|arch=i386)_ZN8CacheMapIyyE6removeEy@Base 2.41
 (optional=templinst|arch=i386)_ZN8CacheMapIyyE8getEntryEy@Base 2.41
 (optional=templinst|arch=i386)_ZN8CacheMapIyyEC1Ev@Base 2.41
 (optional=templinst|arch=i386)_ZN8CacheMapIyyEC2Ev@Base 2.41
 (optional=templinst|arch=i386)_ZN8CacheMapIyyED0Ev@Base 2.41
 (optional=templinst|arch=i386)_ZN8CacheMapIyyED1Ev@Base 2.41
 (optional=templinst|arch=i386)_ZN8CacheMapIyyED2Ev@Base 2.41
 _ZN8DataView10getIdByIdxEl@Base 2.41
 _ZN8DataView11checkUpdateEv@Base 2.41
 _ZN8DataView11getIntValueEil@Base 2.41
 _ZN8DataView11getObjValueEil@Base 2.41
 _ZN8DataView11setObjValueEilPv@Base 2.41
 _ZN8DataView12getIdxByValsEPK5DatumNS_8RelationE@Base 2.41
 _ZN8DataView12getIdxByValsEPK5DatumNS_8RelationEll@Base 2.41
 _ZN8DataView12getLongValueEil@Base 2.41
 _ZN8DataView13getULongValueEil@Base 2.41
 _ZN8DataView13setDatumValueEilPK5Datum@Base 2.41
 _ZN8DataView16filter_in_chunksEP12fltr_dbe_ctx@Base 2.41
 _ZN8DataView16removeDbeViewIdxEl@Base 2.41
 _ZN8DataView22appendDataDescriptorIdEl@Base 2.41
 _ZN8DataView22getDataDescriptorValueEil@Base 2.41
 _ZN8DataView22idxRootDimensionsMatchElPK5Datum@Base 2.41
 (arch=!x32)_ZN8DataView22setDataDescriptorValueEilm@Base 2.41
 (arch=i386 x32)_ZN8DataView22setDataDescriptorValueEily@Base 2.41
 _ZN8DataView4initEP14DataDescriptorNS_12DataViewTypeE@Base 2.41
 _ZN8DataView4sortEPKii@Base 2.41
 _ZN8DataView4sortEi@Base 2.41
 _ZN8DataView4sortEii@Base 2.41
 _ZN8DataView4sortEiii@Base 2.41
 _ZN8DataView7getPropEi@Base 2.41
 _ZN8DataView7getSizeEv@Base 2.41
 _ZN8DataView8getPropsEv@Base 2.41
 (arch=!x32)_ZN8DataView8setValueEilm@Base 2.41
 (arch=i386 x32)_ZN8DataView8setValueEily@Base 2.41
 _ZN8DataView9setFilterEP9FilterExp@Base 2.41
 _ZN8DataViewC1EP14DataDescriptor@Base 2.41
 _ZN8DataViewC1EP14DataDescriptorNS_12DataViewTypeE@Base 2.41
 _ZN8DataViewC2EP14DataDescriptor@Base 2.41
 _ZN8DataViewC2EP14DataDescriptorNS_12DataViewTypeE@Base 2.41
 _ZN8DataViewD0Ev@Base 2.41
 _ZN8DataViewD1Ev@Base 2.41
 _ZN8DataViewD2Ev@Base 2.41
 (optional=templinst|arch=!x32)_ZN8DbeArrayI14DwrAbbrevTableED0Ev@Base 2.41
 (optional=templinst|arch=!x32)_ZN8DbeArrayI14DwrAbbrevTableED1Ev@Base 2.41
 (optional=templinst|arch=!x32)_ZN8DbeArrayI14DwrAbbrevTableED2Ev@Base 2.41
 (optional=templinst|arch=!x32)_ZN8DbeArrayI8Dwr_AttrED0Ev@Base 2.41
 (optional=templinst|arch=!x32)_ZN8DbeArrayI8Dwr_AttrED1Ev@Base 2.41
 (optional=templinst|arch=!x32)_ZN8DbeArrayI8Dwr_AttrED2Ev@Base 2.41
 _ZN8DbeInstr11mapPCtoLineEP10SourceFile@Base 2.41
 _ZN8DbeInstr14get_descriptorEv@Base 2.41
 _ZN8DbeInstr16add_inlined_infoEP13StringBuilder@Base 2.41
 _ZN8DbeInstr6pc_cmpEPS_@Base 2.41
 _ZN8DbeInstr8get_addrEv@Base 2.41
 _ZN8DbeInstr8get_nameEN8Histable10NameFormatE@Base 2.41
 _ZN8DbeInstr8get_sizeEv@Base 2.41
 (arch=!x32)_ZN8DbeInstr8get_typeEv@Base 2.41
 _ZN8DbeInstr9converttoEN8Histable4TypeEPS0_@Base 2.41
 (arch=!x32)_ZN8DbeInstrC1EmiP8Functionm@Base 2.41
 (arch=i386 x32)_ZN8DbeInstrC1EyiP8Functiony@Base 2.41
 (arch=!x32)_ZN8DbeInstrC2EmiP8Functionm@Base 2.41
 (arch=i386 x32)_ZN8DbeInstrC2EyiP8Functiony@Base 2.41
 (arch=!x32)_ZN8DbeInstrD0Ev@Base 2.41
 (arch=!x32)_ZN8DbeInstrD1Ev@Base 2.41
 (arch=!x32)_ZN8DbeInstrD2Ev@Base 2.41
 _ZN8DbeQueueC1EPFiPvES0_@Base 2.41
 _ZN8DbeQueueC2EPFiPvES0_@Base 2.41
 _ZN8DbeQueueD1Ev@Base 2.41
 _ZN8DbeQueueD2Ev@Base 2.41
 _ZN8Dwr_type12get_datatypeEP9Dwarf_cnt@Base 2.41
 _ZN8Dwr_type12get_dobjnameEP9Dwarf_cnt@Base 2.41
 _ZN8Dwr_type12set_dobjnameEPcS0_@Base 2.41
 _ZN8Dwr_type20get_dobj_for_membersEP9Dwarf_cnt@Base 2.41
 _ZN8Dwr_type4dumpEv@Base 2.41
 _ZN8Dwr_type8get_dobjEP9Dwarf_cnt@Base 2.41
 _ZN8ElfReloc13get_elf_relocEP3ElfPcPS_@Base 2.41
 _ZN8ElfReloc14get_reloc_addrEx@Base 2.41
 _ZN8ElfReloc19dump_rela_debug_secEi@Base 2.41
 _ZN8ElfReloc4dumpEv@Base 2.41
 _ZN8ElfRelocC1EP3Elf@Base 2.41
 _ZN8ElfRelocC2EP3Elf@Base 2.41
 _ZN8ElfRelocD1Ev@Base 2.41
 _ZN8ElfRelocD2Ev@Base 2.41
 _ZN8ExpGroup12get_foundersEv@Base 2.41
 _ZN8ExpGroup15drop_experimentEP10Experiment@Base 2.41
 _ZN8ExpGroup15phaseCompareIdxE@Base 2.41
 _ZN8ExpGroup25get_comparable_loadObjectEP10LoadObject@Base 2.41
 _ZN8ExpGroup26create_list_of_loadObjectsEv@Base 2.41
 _ZN8ExpGroup6appendEP10Experiment@Base 2.41
 _ZN8ExpGroupC1EPc@Base 2.41
 _ZN8ExpGroupC2EPc@Base 2.41
 _ZN8ExpGroupD1Ev@Base 2.41
 _ZN8ExpGroupD2Ev@Base 2.41
 (arch=!x32)_ZN8FileData11setReadStatExl@Base 2.41
 (arch=i386 x32)_ZN8FileData11setReadStatExx@Base 2.41
 _ZN8FileData12get_raw_nameEN8Histable10NameFormatE@Base 2.41
 (arch=!x32)_ZN8FileData12setWriteStatExl@Base 2.41
 (arch=i386 x32)_ZN8FileData12setWriteStatExx@Base 2.41
 (arch=!x32)_ZN8FileData13setVirtualFdsEl@Base 2.41
 (arch=i386 x32)_ZN8FileData13setVirtualFdsEx@Base 2.41
 _ZN8FileData14setFileDesListEi@Base 2.41
 _ZN8FileData4initEv@Base 2.41
 (arch=!x32)_ZN8FileData8get_addrEv@Base 2.41
 _ZN8FileData8get_nameEN8Histable10NameFormatE@Base 2.41
 (arch=!x32)_ZN8FileData8get_typeEv@Base 2.41
 _ZN8FileData9converttoEN8Histable4TypeEPS0_@Base 2.41
 _ZN8FileData9setFsTypeE15FileSystem_type@Base 2.41
 _ZN8FileData9setFsTypeEPKc@Base 2.41
 _ZN8FileDataC1EPKc@Base 2.41
 _ZN8FileDataC1EPS_@Base 2.41
 _ZN8FileDataC2EPKc@Base 2.41
 _ZN8FileDataC2EPS_@Base 2.41
 _ZN8FileDataD0Ev@Base 2.41
 _ZN8FileDataD1Ev@Base 2.41
 _ZN8FileDataD2Ev@Base 2.41
 _ZN8Function10popSrcFileEv@Base 2.41
 (arch=!x32)_ZN8Function11add_PC_infoEmiP10SourceFile@Base 2.41
 (arch=i386 x32)_ZN8Function11add_PC_infoEyiP10SourceFile@Base 2.41
 _ZN8Function11copy_PCInfoEPS_@Base 2.41
 _ZN8Function11get_sourcesEv@Base 2.41
 _ZN8Function11mapLineToPcEP7DbeLine@Base 2.41
 (arch=!x32)_ZN8Function11mapPCtoLineEmP10SourceFile@Base 2.41
 (arch=i386 x32)_ZN8Function11mapPCtoLineEyP10SourceFile@Base 2.41
 _ZN8Function11new_srcInfoEv@Base 2.41
 _ZN8Function11pushSrcFileEP10SourceFilei@Base 2.41
 _ZN8Function12setLineFirstEi@Base 2.41
 (arch=!x32)_ZN8Function13find_dbeinstrEim@Base 2.41
 (arch=i386 x32)_ZN8Function13find_dbeinstrEiy@Base 2.41
 _ZN8Function13getDefSrcNameEv@Base 2.41
 (arch=!x32)_ZN8Function13lookup_PCInfoEm@Base 2.41
 (arch=i386 x32)_ZN8Function13lookup_PCInfoEy@Base 2.41
 _ZN8Function14set_match_nameEPKc@Base 2.41
 _ZN8Function16set_mangled_nameEPKc@Base 2.41
 _ZN8Function17create_hide_instrEP8DbeInstr@Base 2.41
 (arch=!x32)_ZN8Function18find_previous_addrEm@Base 2.41
 (arch=i386 x32)_ZN8Function18find_previous_addrEy@Base 2.41
 _ZN8Function19get_comparable_objsEv@Base 2.41
 _ZN8Function19set_comparable_nameEPKc@Base 2.41
 _ZN8Function20findDerivedFunctionsEv@Base 2.41
 _ZN8Function8func_cmpEPS_P10SourceFile@Base 2.41
 _ZN8Function8get_addrEv@Base 2.41
 _ZN8Function8get_nameEN8Histable10NameFormatE@Base 2.41
 (arch=!x32)_ZN8Function8get_sizeEv@Base 2.41
 (arch=!x32)_ZN8Function8get_typeEv@Base 2.41
 _ZN8Function8set_nameEPc@Base 2.41
 _ZN8Function9converttoEN8Histable4TypeEPS0_@Base 2.41
 _ZN8Function9getDefSrcEv@Base 2.41
 _ZN8Function9setDefSrcEP10SourceFile@Base 2.41
 _ZN8Function9setSourceEv@Base 2.41
 (arch=!x32)_ZN8FunctionC1Em@Base 2.41
 (arch=i386 x32)_ZN8FunctionC1Ey@Base 2.41
 (arch=!x32)_ZN8FunctionC2Em@Base 2.41
 (arch=i386 x32)_ZN8FunctionC2Ey@Base 2.41
 _ZN8FunctionD0Ev@Base 2.41
 _ZN8FunctionD1Ev@Base 2.41
 _ZN8FunctionD2Ev@Base 2.41
 (arch=!x32)_ZN8HeapData11setLeakStatEl@Base 2.41
 (arch=i386 x32)_ZN8HeapData11setLeakStatEx@Base 2.41
 _ZN8HeapData12get_raw_nameEN8Histable10NameFormatE@Base 2.41
 (arch=!x32)_ZN8HeapData12setAllocStatEl@Base 2.41
 (arch=i386 x32)_ZN8HeapData12setAllocStatEx@Base 2.41
 (arch=!x32)_ZN8HeapData15setPeakMemUsageElmxii@Base 2.41
 (arch=i386 x32)_ZN8HeapData15setPeakMemUsageExyxii@Base 2.41
 _ZN8HeapData4initEv@Base 2.41
 (arch=!x32)_ZN8HeapData8get_addrEv@Base 2.41
 _ZN8HeapData8get_nameEN8Histable10NameFormatE@Base 2.41
 (arch=!x32)_ZN8HeapData8get_typeEv@Base 2.41
 _ZN8HeapData8set_nameEPc@Base 2.41
 _ZN8HeapData9converttoEN8Histable4TypeEPS0_@Base 2.41
 _ZN8HeapDataC1EPS_@Base 2.41
 _ZN8HeapDataC1EPc@Base 2.41
 _ZN8HeapDataC2EPS_@Base 2.41
 _ZN8HeapDataC2EPc@Base 2.41
 _ZN8HeapDataD0Ev@Base 2.41
 _ZN8HeapDataD1Ev@Base 2.41
 _ZN8HeapDataD2Ev@Base 2.41
 _ZN8Histable14type_to_stringEv@Base 2.41
 _ZN8Histable15get_compare_objEv@Base 2.41
 _ZN8Histable19get_comparable_objsEv@Base 2.41
 _ZN8Histable20dump_comparable_objsEv@Base 2.41
 (arch=!x32)_ZN8Histable21set_name_from_contextEPN10Expression7ContextE@Base 2.41
 _ZN8Histable22delete_comparable_objsEv@Base 2.41
 _ZN8Histable22update_comparable_objsEv@Base 2.41
 _ZN8Histable4dumpEv@Base 2.41
 (arch=!x32)_ZN8Histable8get_addrEv@Base 2.41
 (arch=!x32)_ZN8Histable8get_nameENS_10NameFormatE@Base 2.41
 (arch=!x32)_ZN8Histable8get_sizeEv@Base 2.41
 (arch=!x32)_ZN8Histable8set_nameEPc@Base 2.41
 (arch=!x32)_ZN8Histable9converttoENS_4TypeEPS_@Base 2.41
 _ZN8HistableC1Ev@Base 2.41
 _ZN8HistableC2Ev@Base 2.41
 _ZN8HistableD0Ev@Base 2.41
 _ZN8HistableD1Ev@Base 2.41
 _ZN8HistableD2Ev@Base 2.41
 _ZN8Ovw_data10get_labelsEv@Base 2.41
 _ZN8Ovw_data10get_totalsEv@Base 2.41
 _ZN8Ovw_data10reset_itemEPNS_8Ovw_itemE@Base 2.41
 _ZN8Ovw_data12extract_dataEPNS_8Ovw_itemEP6Sample@Base 2.41
 _ZN8Ovw_data3sumEPS_@Base 2.41
 _ZN8Ovw_dataC1EP8DataViewx@Base 2.41
 _ZN8Ovw_dataC1Ev@Base 2.41
 _ZN8Ovw_dataC2EP8DataViewx@Base 2.41
 _ZN8Ovw_dataC2Ev@Base 2.41
 _ZN8Ovw_dataD1Ev@Base 2.41
 _ZN8Ovw_dataD2Ev@Base 2.41
 _ZN8PathTree11fetch_statsEv@Base 2.41
 _ZN8PathTree11ftree_buildEPS_@Base 2.41
 _ZN8PathTree11ftree_buildEPS_ll@Base 2.41
 _ZN8PathTree11ftree_resetEv@Base 2.41
 _ZN8PathTree11get_metricsEP6VectorIP8FunctionEP8Histable@Base 2.41
 _ZN8PathTree11get_metricsEli@Base 2.41
 _ZN8PathTree12delete_statsEv@Base 2.41
 _ZN8PathTree12get_hist_objEPNS_4NodeEP8Histable@Base 2.41
 _ZN8PathTree13allocate_slotEi8ValueTag@Base 2.41
 _ZN8PathTree13get_cle_instrEP8HistableRP6VectorIS1_E@Base 2.41
 _ZN8PathTree13get_clr_instrEP8Histable@Base 2.41
 _ZN8PathTree14add_experimentEi@Base 2.41
 _ZN8PathTree14allocate_slotsEPNS_4SlotEi@Base 2.41
 _ZN8PathTree14fetch_warningsEv@Base 2.41
 _ZN8PathTree14find_desc_nodeElP8Histableb@Base 2.41
 _ZN8PathTree15compute_metricsEP10MetricListN8Histable4TypeEN9Hist_data4ModeEP6VectorIPS2_ES7_S9_NS_18PtreeComputeOptionE@Base 2.41
 _ZN8PathTree15delete_warningsEv@Base 2.41
 _ZN8PathTree15depth_map_buildEli@Base 2.41
 _ZN8PathTree15depth_map_buildEv@Base 2.41
 _ZN8PathTree15get_cle_metricsEP6VectorIP8HistableE@Base 2.41
 _ZN8PathTree15get_cle_metricsEP6VectorIP8HistableEli@Base 2.41
 _ZN8PathTree15get_cle_metricsEP6VectorIP8HistableEliii@Base 2.41
 _ZN8PathTree15get_clr_metricsEP6VectorIP8HistableE@Base 2.41
 _ZN8PathTree15get_clr_metricsEP6VectorIP8HistableElii@Base 2.41
 _ZN8PathTree15get_compare_objEP8Histable@Base 2.41
 _ZN8PathTree15get_cstack_dataEP10MetricList@Base 2.41
 _ZN8PathTree15get_cstack_listEP11CStack_datali@Base 2.41
 _ZN8PathTree15get_ftree_depthEv@Base 2.41
 _ZN8PathTree15get_ftree_funcsEv@Base 2.41
 _ZN8PathTree15get_ftree_levelEP10BaseMetrici@Base 2.41
 _ZN8PathTree15process_packetsEP10ExperimentP8DataViewi@Base 2.41
 _ZN8PathTree16get_self_metricsEP6VectorIP8HistableE@Base 2.41
 _ZN8PathTree16get_self_metricsEP6VectorIP8HistableElbi@Base 2.41
 _ZN8PathTree16get_self_metricsEP8HistableP6VectorIP8FunctionEPS2_IS1_E@Base 2.41
 _ZN8PathTree17get_hist_func_objEPNS_4NodeE@Base 2.41
 _ZN8PathTree17get_node_childrenEP10BaseMetricl@Base 2.41
 _ZN8PathTree19find_in_desc_htableElP8Histableb@Base 2.41
 _ZN8PathTree19get_filtered_eventsEii@Base 2.41
 _ZN8PathTree23get_ftree_node_childrenEP10BaseMetricl@Base 2.41
 _ZN8PathTree4finiEv@Base 2.41
 _ZN8PathTree4initEv@Base 2.41
 _ZN8PathTree5printEP8_IO_FILE@Base 2.41
 _ZN8PathTree5printEP8_IO_FILEPNS_4NodeEi@Base 2.41
 _ZN8PathTree5resetEv@Base 2.41
 _ZN8PathTree6printnEP8_IO_FILE@Base 2.41
 _ZN8PathTree8new_NodeElP8Histableb@Base 2.41
 _ZN8PathTree9constructEP7DbeViewiNS_12PathTreeTypeE@Base 2.41
 _ZN8PathTree9dbg_nodesEPNS_4NodeE@Base 2.41
 _ZN8PathTree9dumpNodesEP8_IO_FILEP8Histable@Base 2.41
 _ZN8PathTree9find_pathEP10ExperimentP8DataViewl@Base 2.41
 _ZN8PathTree9find_slotEi@Base 2.41
 _ZN8PathTree9get_funcsEv@Base 2.41
 _ZN8PathTree9get_levelEP10BaseMetrici@Base 2.41
 _ZN8PathTree9get_nodesEP10BaseMetricP6VectorIlE@Base 2.41
 _ZN8PathTreeD1Ev@Base 2.41
 _ZN8PathTreeD2Ev@Base 2.41
 _ZN8Settings10get_tldataEv@Base 2.41
 _ZN8Settings10set_tldataEPKc@Base 2.41
 _ZN8Settings11add_pathmapEP6VectorIP9pathmap_tEPKcS6_@Base 2.41
 _ZN8Settings11mobj_defineEP12MemObjType_tb@Base 2.41
 _ZN8Settings11proc_threshEPcbb@Base 2.41
 _ZN8Settings11proc_tldataEPKcb@Base 2.41
 _ZN8Settings11proc_tlmodeEPcb@Base 2.41
 _ZN8Settings11set_en_descEPcb@Base 2.41
 _ZN8Settings12proc_compcomEPKcbb@Base 2.41
 _ZN8Settings12set_pathmapsEP6VectorIP9pathmap_tE@Base 2.41
 _ZN8Settings13check_en_descEPKcS1_@Base 2.41
 _ZN8Settings13set_libexpandEPc9LibExpandb@Base 2.41
 _ZN8Settings13set_printmodeEPc@Base 2.41
 _ZN8Settings13set_view_modeEPcb@Base 2.41
 _ZN8Settings14get_lo_settingEPc@Base 2.41
 _ZN8Settings14indxobj_defineEib@Base 2.41
 _ZN8Settings15set_MemTabStateEP6VectorIbE@Base 2.41
 _ZN8Settings15set_libdefaultsEv@Base 2.41
 _ZN8Settings15set_name_formatEPc@Base 2.41
 _ZN8Settings16set_IndxTabStateEP6VectorIbE@Base 2.41
 _ZN8Settings18buildMasterTabListEv@Base 2.41
 _ZN8Settings18get_compcom_errstrE10Cmd_statusPKc@Base 2.41
 _ZN8Settings21updateTabAvailabilityEv@Base 2.41
 _ZN8Settings6set_rcEPKcbP9Emsgqueuebb@Base 2.41
 _ZN8Settings7read_rcEPc@Base 2.41
 _ZN8Settings7read_rcEb@Base 2.41
 _ZN8Settings9proc_tabsEb@Base 2.41
 _ZN8Settings9set_limitEPcb@Base 2.41
 _ZN8SettingsC1EP11Application@Base 2.41
 _ZN8SettingsC1EPS_@Base 2.41
 _ZN8SettingsC2EP11Application@Base 2.41
 _ZN8SettingsC2EPS_@Base 2.41
 _ZN8SettingsD0Ev@Base 2.41
 _ZN8SettingsD1Ev@Base 2.41
 _ZN8SettingsD2Ev@Base 2.41
 _ZN9CallStack10getStackPCEPvi@Base 2.41
 _ZN9CallStack11getInstanceEP10Experiment@Base 2.41
 _ZN9CallStack11getStackPCsEPvb@Base 2.41
 _ZN9CallStack12setHideStackEPvS0_@Base 2.41
 _ZN9CallStack7compareEPvS0_@Base 2.41
 _ZN9CallStack9stackSizeEPv@Base 2.41
 (arch=!x32)_ZN9ClassFile10get_disasmEmmmmRl@Base 2.41
 (arch=i386 x32)_ZN9ClassFile10get_disasmEyyyyRx@Base 2.41
 _ZN9ClassFile12get_opc_nameEi@Base 2.41
 _ZN9ClassFile13printConstantEP13StringBuilderi@Base 2.41
 _ZN9ClassFile14readAttributesEi@Base 2.41
 (arch=!x32)_ZN9ClassFile17printCodeSequenceEP13StringBuildermP15DataInputStream@Base 2.41
 (arch=i386 x32)_ZN9ClassFile17printCodeSequenceEP13StringBuilderyP15DataInputStream@Base 2.41
 _ZN9ClassFile18get_java_file_nameEPcb@Base 2.41
 _ZN9ClassFile8openFileEPKc@Base 2.41
 _ZN9ClassFile8readFileEv@Base 2.41
 _ZN9ClassFileC1Ev@Base 2.41
 _ZN9ClassFileC2Ev@Base 2.41
 _ZN9ClassFileD0Ev@Base 2.41
 _ZN9ClassFileD1Ev@Base 2.41
 _ZN9ClassFileD2Ev@Base 2.41
 _ZN9Coll_Ctrl10check_exptEPPc@Base 2.41
 _ZN9Coll_Ctrl10close_exptEv@Base 2.41
 _ZN9Coll_Ctrl10join_groupEv@Base 2.41
 _ZN9Coll_Ctrl10set_targetEPc@Base 2.41
 _ZN9Coll_Ctrl11check_groupEv@Base 2.41
 _ZN9Coll_Ctrl11delete_exptEv@Base 2.41
 _ZN9Coll_Ctrl11disable_hwcEv@Base 2.41
 _ZN9Coll_Ctrl11enable_exptEv@Base 2.41
 _ZN9Coll_Ctrl11set_clkprofEPKcPPc@Base 2.41
 _ZN9Coll_Ctrl11set_iotraceEPKc@Base 2.41
 _ZN9Coll_Ctrl12get_exp_nameEPKc@Base 2.41
 _ZN9Coll_Ctrl12hwcentry_dupEP8HwcentryS1_@Base 2.41
 _ZN9Coll_Ctrl12set_time_runEPKc@Base 2.41
 _ZN9Coll_Ctrl13add_hwcstringEPKcPPc@Base 2.41
 _ZN9Coll_Ctrl13reset_clkprofEi@Base 2.41
 _ZN9Coll_Ctrl13set_directoryEPcPS0_@Base 2.41
 _ZN9Coll_Ctrl13set_heaptraceEPKc@Base 2.41
 _ZN9Coll_Ctrl13set_hwcstringEPKcPPc@Base 2.41
 _ZN9Coll_Ctrl13set_java_argsEPc@Base 2.41
 _ZN9Coll_Ctrl13set_java_modeEPKc@Base 2.41
 _ZN9Coll_Ctrl13set_java_pathEPKc@Base 2.41
 _ZN9Coll_Ctrl13set_prof_idleEPKc@Base 2.41
 _ZN9Coll_Ctrl13set_synctraceEPKc@Base 2.41
 _ZN9Coll_Ctrl14create_exp_dirEv@Base 2.41
 _ZN9Coll_Ctrl14remove_exp_dirEv@Base 2.41
 _ZN9Coll_Ctrl14set_attach_pidEPc@Base 2.41
 _ZN9Coll_Ctrl14set_clk_paramsEiiiiii@Base 2.41
 _ZN9Coll_Ctrl14set_debug_modeEi@Base 2.41
 _ZN9Coll_Ctrl14set_hwcdefaultEv@Base 2.41
 _ZN9Coll_Ctrl14set_size_limitEPKc@Base 2.41
 _ZN9Coll_Ctrl15build_data_descEv@Base 2.41
 _ZN9Coll_Ctrl15free_hwc_fieldsEP8Hwcentry@Base 2.41
 _ZN9Coll_Ctrl15set_follow_modeEPKc@Base 2.41
 _ZN9Coll_Ctrl16find_signal_nameEi@Base 2.41
 _ZN9Coll_Ctrl16get_collect_argsEv@Base 2.41
 _ZN9Coll_Ctrl16preprocess_namesEv@Base 2.41
 _ZN9Coll_Ctrl16set_archive_modeEPKc@Base 2.41
 _ZN9Coll_Ctrl16set_default_stemEPKc@Base 2.41
 _ZN9Coll_Ctrl16set_project_homeEPc@Base 2.41
 _ZN9Coll_Ctrl16setup_experimentEv@Base 2.41
 _ZN9Coll_Ctrl16update_expt_nameEbbb@Base 2.41
 _ZN9Coll_Ctrl17check_consistencyEv@Base 2.41
 _ZN9Coll_Ctrl17set_sample_periodEPKc@Base 2.41
 _ZN9Coll_Ctrl17set_sample_signalEi@Base 2.41
 _ZN9Coll_Ctrl20adjust_clkprof_timerEi@Base 2.41
 _ZN9Coll_Ctrl21add_default_hwcstringEPKcPPcbb@Base 2.41
 _ZN9Coll_Ctrl22report_signal_conflictEi@Base 2.41
 _ZN9Coll_Ctrl22set_pauseresume_signalEii@Base 2.41
 _ZN9Coll_Ctrl24determine_profile_paramsEv@Base 2.41
 _ZN9Coll_Ctrl24set_clkprof_timer_targetEi@Base 2.41
 _ZN9Coll_Ctrl33clkprof_timer_2_hwcentry_min_timeEi@Base 2.41
 _ZN9Coll_Ctrl3getEPc@Base 2.41
 _ZN9Coll_Ctrl3setEPcPKc@Base 2.41
 _ZN9Coll_Ctrl4showEi@Base 2.41
 _ZN9Coll_Ctrl5unsetEPc@Base 2.41
 _ZN9Coll_Ctrl8find_sigEPKc@Base 2.41
 _ZN9Coll_Ctrl8set_exptEPKcPPcb@Base 2.41
 _ZN9Coll_Ctrl9interruptEv@Base 2.41
 _ZN9Coll_Ctrl9set_countEPKc@Base 2.41
 _ZN9Coll_Ctrl9set_groupEPc@Base 2.41
 _ZN9Coll_Ctrl9setup_hwcEv@Base 2.41
 _ZN9Coll_Ctrl9show_exptEv@Base 2.41
 _ZN9Coll_CtrlC1EPS_@Base 2.41
 _ZN9Coll_CtrlC1Eibb@Base 2.41
 _ZN9Coll_CtrlC2EPS_@Base 2.41
 _ZN9Coll_CtrlC2Eibb@Base 2.41
 _ZN9Coll_CtrlD1Ev@Base 2.41
 _ZN9Coll_CtrlD2Ev@Base 2.41
 (arch=!x32)_ZN9DataINT3210fetchULongEl@Base 2.41
 (arch=!x32)_ZN9DataINT3211fetchDoubleEl@Base 2.41
 (arch=!x32)_ZN9DataINT3211fetchObjectEl@Base 2.41
 (arch=!x32)_ZN9DataINT3211fetchStringEl@Base 2.41
 (arch=!x32)_ZN9DataINT3211setObjValueElPv@Base 2.41
 (arch=!x32)_ZN9DataINT3213cmpDatumValueElPK5Datum@Base 2.41
 (arch=!x32)_ZN9DataINT3213setDatumValueElPK5Datum@Base 2.41
 (arch=!x32)_ZN9DataINT324typeEv@Base 2.41
 (arch=!x32)_ZN9DataINT325resetEv@Base 2.41
 (arch=!x32)_ZN9DataINT327getSizeEv@Base 2.41
 (arch=!x32)_ZN9DataINT328fetchIntEl@Base 2.41
 (arch=!x32)_ZN9DataINT328setValueElm@Base 2.41
 (arch=i386)_ZN9DataINT328setValueEly@Base 2.41
 (arch=!x32)_ZN9DataINT329cmpValuesEll@Base 2.41
 (arch=!x32)_ZN9DataINT329fetchLongEl@Base 2.41
 (arch=!x32)_ZN9DataINT32D0Ev@Base 2.41
 (arch=!x32)_ZN9DataINT32D1Ev@Base 2.41
 (arch=!x32)_ZN9DataINT32D2Ev@Base 2.41
 (arch=!x32)_ZN9DataINT6410fetchULongEl@Base 2.41
 (arch=!x32)_ZN9DataINT6411fetchDoubleEl@Base 2.41
 (arch=!x32)_ZN9DataINT6411fetchObjectEl@Base 2.41
 (arch=!x32)_ZN9DataINT6411fetchStringEl@Base 2.41
 (arch=!x32)_ZN9DataINT6411setObjValueElPv@Base 2.41
 (arch=!x32)_ZN9DataINT6413cmpDatumValueElPK5Datum@Base 2.41
 (arch=!x32)_ZN9DataINT6413setDatumValueElPK5Datum@Base 2.41
 (arch=!x32)_ZN9DataINT644typeEv@Base 2.41
 (arch=!x32)_ZN9DataINT645resetEv@Base 2.41
 (arch=!x32)_ZN9DataINT647getSizeEv@Base 2.41
 (arch=!x32)_ZN9DataINT648fetchIntEl@Base 2.41
 (arch=!x32)_ZN9DataINT648setValueElm@Base 2.41
 (arch=i386)_ZN9DataINT648setValueEly@Base 2.41
 (arch=!x32)_ZN9DataINT649cmpValuesEll@Base 2.41
 (arch=!x32)_ZN9DataINT649fetchLongEl@Base 2.41
 (arch=!x32)_ZN9DataINT64D0Ev@Base 2.41
 (arch=!x32)_ZN9DataINT64D1Ev@Base 2.41
 (arch=!x32)_ZN9DataINT64D2Ev@Base 2.41
 _ZN9DataSpace10status_strEv@Base 2.41
 _ZN9DataSpace12get_hist_objEN8Histable4TypeEP8DataViewl@Base 2.41
 _ZN9DataSpace15compute_metricsEP10MetricListN8Histable4TypeEN9Hist_data4ModeEPS2_@Base 2.41
 _ZN9DataSpace15get_layout_dataEP9Hist_dataP6VectorIiEi@Base 2.41
 _ZN9DataSpace5resetEv@Base 2.41
 _ZN9DataSpaceC1EP7DbeViewi@Base 2.41
 _ZN9DataSpaceC2EP7DbeViewi@Base 2.41
 _ZN9DataSpaceD1Ev@Base 2.41
 _ZN9DataSpaceD2Ev@Base 2.41
 (arch=!x32)_ZN9Dwarf_cnt12get_dwr_typeEl@Base 2.41
 (arch=i386 x32)_ZN9Dwarf_cnt12get_dwr_typeEx@Base 2.41
 _ZN9Dwarf_cnt12put_dwr_typeEP7Dwr_Tag@Base 2.41
 (arch=!x32)_ZN9Dwarf_cnt12put_dwr_typeEli@Base 2.41
 (arch=i386 x32)_ZN9Dwarf_cnt12put_dwr_typeExi@Base 2.41
 _ZN9Dwarf_cntC1Ev@Base 2.41
 _ZN9Dwarf_cntC2Ev@Base 2.41
 _ZN9Emsgqueue10mark_clearEv@Base 2.41
 _ZN9Emsgqueue11appendqueueEPS_@Base 2.41
 _ZN9Emsgqueue5clearEv@Base 2.41
 _ZN9Emsgqueue5fetchEv@Base 2.41
 _ZN9Emsgqueue6appendE9Cmsg_warnPc@Base 2.41
 _ZN9Emsgqueue6appendEP4Emsg@Base 2.41
 _ZN9Emsgqueue8find_msgE9Cmsg_warnPc@Base 2.41
 _ZN9EmsgqueueC1EPc@Base 2.41
 _ZN9EmsgqueueC2EPc@Base 2.41
 _ZN9EmsgqueueD1Ev@Base 2.41
 _ZN9EmsgqueueD2Ev@Base 2.41
 _ZN9FilterSet10get_filterEi@Base 2.41
 _ZN9FilterSet19get_advanced_filterEv@Base 2.41
 _ZN9FilterSetC1EP7DbeViewP10Experiment@Base 2.41
 _ZN9FilterSetC2EP7DbeViewP10Experiment@Base 2.41
 _ZN9FilterSetD1Ev@Base 2.41
 _ZN9FilterSetD2Ev@Base 2.41
 _ZN9Hist_data10update_maxEPN6Metric11HistMetricSE@Base 2.41
 _ZN9Hist_data11name_maxlenEv@Base 2.41
 _ZN9Hist_data11print_labelEP8_IO_FILEPN6Metric11HistMetricSEi@Base 2.41
 _ZN9Hist_data11time_maxlenEii@Base 2.41
 _ZN9Hist_data12sort_compareEPNS_8HistItemES1_NS_9Sort_typeElPS_@Base 2.41
 _ZN9Hist_data12update_totalEPNS_8HistItemE@Base 2.41
 _ZN9Hist_data12value_maxlenEi@Base 2.41
 _ZN9Hist_data13new_hist_itemEP8Histable@Base 2.41
 _ZN9Hist_data13new_hist_itemEP8HistableiP6TValue@Base 2.41
 _ZN9Hist_data13print_contentEP8_IO_FILEPN6Metric11HistMetricSEi@Base 2.41
 _ZN9Hist_data13set_thresholdEd@Base 2.41
 _ZN9Hist_data14compute_minmaxEv@Base 2.41
 _ZN9Hist_data14find_hist_itemEP8Histable@Base 2.41
 _ZN9Hist_data14get_percentageEdi@Base 2.41
 _ZN9Hist_data14get_real_valueEP6TValueii@Base 2.41
 _ZN9Hist_data15above_thresholdEPNS_8HistItemE@Base 2.41
 _ZN9Hist_data15get_histmetricsEv@Base 2.41
 _ZN9Hist_data16append_hist_itemEP8Histable@Base 2.41
 _ZN9Hist_data16append_hist_itemEPNS_8HistItemE@Base 2.41
 _ZN9Hist_data16sort_compare_allEPKvS1_S1_@Base 2.41
 _ZN9Hist_data18get_object_indicesEP6VectorIiE@Base 2.41
 _ZN9Hist_data19update_legend_widthEPN6Metric11HistMetricSE@Base 2.41
 _ZN9Hist_data20sort_compare_dlayoutEPKvS1_S1_@Base 2.41
 _ZN9Hist_data4dumpEPcP8_IO_FILE@Base 2.41
 _ZN9Hist_data4sizeEv@Base 2.41
 _ZN9Hist_data4sortElb@Base 2.41
 _ZN9Hist_data5fetchEl@Base 2.41
 _ZN9Hist_data6resortEP10MetricList@Base 2.41
 _ZN9Hist_data8HistItemC1El@Base 2.41
 _ZN9Hist_data8HistItemC2El@Base 2.41
 _ZN9Hist_data8HistItemD1Ev@Base 2.41
 _ZN9Hist_data8HistItemD2Ev@Base 2.41
 _ZN9Hist_data8name_lenEPNS_8HistItemE@Base 2.41
 _ZN9Hist_data8time_lenEP6TValuei@Base 2.41
 _ZN9Hist_data9get_valueEP6TValueiPNS_8HistItemE@Base 2.41
 _ZN9Hist_data9get_valueEP6TValueii@Base 2.41
 _ZN9Hist_data9print_rowEP13StringBuilderiPN6Metric11HistMetricSEPKc@Base 2.41
 _ZN9Hist_dataC1EP10MetricListN8Histable4TypeENS_4ModeEb@Base 2.41
 _ZN9Hist_dataC2EP10MetricListN8Histable4TypeENS_4ModeEb@Base 2.41
 _ZN9Hist_dataD0Ev@Base 2.41
 _ZN9Hist_dataD1Ev@Base 2.41
 _ZN9Hist_dataD2Ev@Base 2.41
 _ZN9PropDescr12getStateNameEi@Base 2.41
 _ZN9PropDescr13getStateUNameEi@Base 2.41
 _ZN9PropDescr8addStateEiPKcS1_@Base 2.41
 _ZN9PropDescrC1EiPKc@Base 2.41
 _ZN9PropDescrC2EiPKc@Base 2.41
 _ZN9PropDescrD0Ev@Base 2.41
 _ZN9PropDescrD1Ev@Base 2.41
 _ZN9PropDescrD2Ev@Base 2.41
 (optional=templinst|arch=!x32)_ZN9StringMapIP10DbeJarFileE3getEPKc@Base 2.41
 (optional=templinst|arch=!x32)_ZN9StringMapIP10DbeJarFileE3getEPKcN3MapIS4_S1_E8RelationE@Base 2.41
 (optional=templinst|arch=!x32)_ZN9StringMapIP10DbeJarFileE3putEPKcS1_@Base 2.41
 (optional=templinst|arch=!x32)_ZN9StringMapIP10DbeJarFileE6keySetEv@Base 2.41
 (optional=templinst|arch=!x32)_ZN9StringMapIP10DbeJarFileE6removeEPKc@Base 2.41
 (optional=templinst|arch=!x32)_ZN9StringMapIP10DbeJarFileE6valuesEv@Base 2.41
 (optional=templinst|arch=!x32)_ZN9StringMapIP10DbeJarFileED0Ev@Base 2.41
 (optional=templinst|arch=!x32)_ZN9StringMapIP10DbeJarFileED1Ev@Base 2.41
 (optional=templinst|arch=!x32)_ZN9StringMapIP10DbeJarFileED2Ev@Base 2.41
 (optional=templinst|arch=!x32)_ZN9StringMapIP10LoadObjectE3getEPKc@Base 2.41
 (optional=templinst|arch=!x32)_ZN9StringMapIP10LoadObjectE3getEPKcN3MapIS4_S1_E8RelationE@Base 2.41
 (optional=templinst|arch=!x32)_ZN9StringMapIP10LoadObjectE3putEPKcS1_@Base 2.41
 (optional=templinst|arch=!x32)_ZN9StringMapIP10LoadObjectE6keySetEv@Base 2.41
 (optional=templinst|arch=!x32)_ZN9StringMapIP10LoadObjectE6removeEPKc@Base 2.41
 (optional=templinst|arch=!x32)_ZN9StringMapIP10LoadObjectE6valuesEv@Base 2.41
 (optional=templinst|arch=!x32)_ZN9StringMapIP10LoadObjectED0Ev@Base 2.41
 (optional=templinst|arch=!x32)_ZN9StringMapIP10LoadObjectED1Ev@Base 2.41
 (optional=templinst|arch=!x32)_ZN9StringMapIP10LoadObjectED2Ev@Base 2.41
 (optional=templinst|arch=!x32)_ZN9StringMapIP10SourceFileE3getEPKc@Base 2.41
 (optional=templinst|arch=!x32)_ZN9StringMapIP10SourceFileE3getEPKcN3MapIS4_S1_E8RelationE@Base 2.41
 (optional=templinst|arch=!x32)_ZN9StringMapIP10SourceFileE3putEPKcS1_@Base 2.41
 (optional=templinst|arch=!x32)_ZN9StringMapIP10SourceFileE6keySetEv@Base 2.41
 (optional=templinst|arch=!x32)_ZN9StringMapIP10SourceFileE6removeEPKc@Base 2.41
 (optional=templinst|arch=!x32)_ZN9StringMapIP10SourceFileE6valuesEv@Base 2.41
 (optional=templinst|arch=!x32)_ZN9StringMapIP10SourceFileED0Ev@Base 2.41
 (optional=templinst|arch=!x32)_ZN9StringMapIP10SourceFileED1Ev@Base 2.41
 (optional=templinst|arch=!x32)_ZN9StringMapIP10SourceFileED2Ev@Base 2.41
 (optional=templinst|arch=!x32)_ZN9StringMapIP6SymbolE3getEPKc@Base 2.41
 (optional=templinst|arch=!x32)_ZN9StringMapIP6SymbolE3getEPKcN3MapIS4_S1_E8RelationE@Base 2.41
 (optional=templinst|arch=!x32)_ZN9StringMapIP6SymbolE3putEPKcS1_@Base 2.41
 (optional=templinst|arch=!x32)_ZN9StringMapIP6SymbolE6keySetEv@Base 2.41
 (optional=templinst|arch=!x32)_ZN9StringMapIP6SymbolE6removeEPKc@Base 2.41
 (optional=templinst|arch=!x32)_ZN9StringMapIP6SymbolE6valuesEv@Base 2.41
 (optional=templinst|arch=!x32)_ZN9StringMapIP6SymbolED0Ev@Base 2.41
 (optional=templinst|arch=!x32)_ZN9StringMapIP6SymbolED1Ev@Base 2.41
 (optional=templinst|arch=!x32)_ZN9StringMapIP6SymbolED2Ev@Base 2.41
 (optional=templinst|arch=!x32)_ZN9StringMapIP7DbeFileE3getEPKc@Base 2.41
 (optional=templinst|arch=!x32)_ZN9StringMapIP7DbeFileE3getEPKcN3MapIS4_S1_E8RelationE@Base 2.41
 (optional=templinst|arch=!x32)_ZN9StringMapIP7DbeFileE3putEPKcS1_@Base 2.41
 (optional=templinst|arch=!x32)_ZN9StringMapIP7DbeFileE6keySetEv@Base 2.41
 (optional=templinst|arch=!x32)_ZN9StringMapIP7DbeFileE6removeEPKc@Base 2.41
 (optional=templinst|arch=!x32)_ZN9StringMapIP7DbeFileE6valuesEv@Base 2.41
 (optional=templinst|arch=!x32)_ZN9StringMapIP7DbeFileED0Ev@Base 2.41
 (optional=templinst|arch=!x32)_ZN9StringMapIP7DbeFileED1Ev@Base 2.41
 (optional=templinst|arch=!x32)_ZN9StringMapIP7DbeFileED2Ev@Base 2.41
 (optional=templinst|arch=!x32)_ZN9StringMapIiE3getEPKc@Base 2.41
 (optional=templinst|arch=!x32)_ZN9StringMapIiE3getEPKcN3MapIS2_iE8RelationE@Base 2.41
 (optional=templinst|arch=!x32)_ZN9StringMapIiE3putEPKci@Base 2.41
 (optional=templinst|arch=!x32)_ZN9StringMapIiE6keySetEv@Base 2.41
 (optional=templinst|arch=!x32)_ZN9StringMapIiE6removeEPKc@Base 2.41
 (optional=templinst|arch=!x32)_ZN9StringMapIiE6valuesEv@Base 2.41
 (optional=templinst|arch=!x32)_ZN9StringMapIiEC1Eii@Base 2.41
 (optional=templinst|arch=!x32)_ZN9StringMapIiEC2Eii@Base 2.41
 (optional=templinst|arch=!x32)_ZN9StringMapIiED0Ev@Base 2.41
 (optional=templinst|arch=!x32)_ZN9StringMapIiED1Ev@Base 2.41
 (optional=templinst|arch=!x32)_ZN9StringMapIiED2Ev@Base 2.41
 _ZN9UserLabel19register_user_labelEi@Base 2.41
 _ZN9UserLabel4dumpEPKcP6VectorIPS_E@Base 2.41
 _ZN9UserLabel4dumpEv@Base 2.41
 _ZN9UserLabel7last_idE@Base 2.41
 _ZN9UserLabel8gen_exprEv@Base 2.41
 _ZN9UserLabelC1EPc@Base 2.41
 _ZN9UserLabelC2EPc@Base 2.41
 _ZN9UserLabelD1Ev@Base 2.41
 _ZN9UserLabelD2Ev@Base 2.41
 _ZNK2QL6Parser8by_state4kindEv@Base 2.41
 (optional=templinst|arch=!x32)_ZNSt12_Destroy_auxILb0EE9__destroyIPN2QL6Parser17stack_symbol_typeEEEvT_S6_@Base 2.41
 (optional=templinst|arch=!x32)_ZNSt6vectorIN2QL6Parser17stack_symbol_typeESaIS2_EE17_M_realloc_insertIJS2_EEEvN9__gnu_cxx17__normal_iteratorIPS2_S4_EEDpOT_@Base 2.41
 (optional=templinst|arch=!x32)_ZNSt7__cxx1112basic_stringIcSt11char_traitsIcESaIcEEC1IS3_EEPKcRKS3_@Base 2.41
 (optional=templinst|arch=!x32)_ZNSt7__cxx1112basic_stringIcSt11char_traitsIcESaIcEEC2IS3_EEPKcRKS3_@Base 2.41
 (optional=templinst|arch=!x32)_ZNSt8_Rb_treeIllSt9_IdentityIlESt4lessIlESaIlEE16_M_insert_uniqueIRKlEESt4pairISt17_Rb_tree_iteratorIlEbEOT_@Base 2.41
 (optional=templinst|arch=!x32)_ZSt16__do_uninit_copyISt13move_iteratorIPN2QL6Parser17stack_symbol_typeEES4_ET0_T_S7_S6_@Base 2.41
 _ZTI10Attributes@Base 2.41
 _ZTI10BaseMetric@Base 2.41
 _ZTI10CallStackP@Base 2.41
 (arch=!x32)_ZTI10DataDOUBLE@Base 2.41
 (arch=!x32)_ZTI10DataOBJECT@Base 2.41
 _ZTI10DataObject@Base 2.41
 (arch=!x32)_ZTI10DataSTRING@Base 2.41
 (arch=!x32)_ZTI10DataUINT32@Base 2.41
 (arch=!x32)_ZTI10DataUINT64@Base 2.41
 (arch=!x32)_ZTI10DbeSyncMapI10LoadObjectE@Base 2.41
 (arch=!x32)_ZTI10DefaultMapIP10LoadObjectiE@Base 2.41
 (arch=!x32)_ZTI10DefaultMapIP8FunctionS1_E@Base 2.41
 (arch=!x32)_ZTI10DefaultMapIP8FunctioniE@Base 2.41
 (arch=!x32)_ZTI10DefaultMapIP8FunctionlE@Base 2.41
 (arch=!x32)_ZTI10DefaultMapIP8HistableiE@Base 2.41
 (arch=!x32)_ZTI10DefaultMapIPvP8FileDataE@Base 2.41
 (arch=!x32)_ZTI10DefaultMapIiP7DbeLineE@Base 2.41
 (arch=!x32)_ZTI10DefaultMapIilE@Base 2.41
 (arch=i386)_ZTI10DefaultMapIixE@Base 2.41
 (arch=!x32)_ZTI10DefaultMapIjP3MapIxPvEE@Base 2.41
 (arch=!x32)_ZTI10DefaultMapIjP3MapIxmEE@Base 2.41
 (arch=i386)_ZTI10DefaultMapIjP3MapIxyEE@Base 2.41
 (arch=!x32)_ZTI10DefaultMapIlP8Dwr_typeE@Base 2.41
 (arch=!x32)_ZTI10DefaultMapIlP8FileDataE@Base 2.41
 (arch=!x32)_ZTI10DefaultMapImP6VectorIiEE@Base 2.41
 (arch=!x32)_ZTI10DefaultMapImP8HeapDataE@Base 2.41
 (arch=!x32)_ZTI10DefaultMapImiE@Base 2.41
 (arch=i386)_ZTI10DefaultMapIxP8Dwr_typeE@Base 2.41
 (arch=i386)_ZTI10DefaultMapIxP8FileDataE@Base 2.41
 (arch=!x32)_ZTI10DefaultMapIxPvE@Base 2.41
 (arch=!x32)_ZTI10DefaultMapIxlE@Base 2.41
 (arch=!x32)_ZTI10DefaultMapIxmE@Base 2.41
 (arch=!x32)_ZTI10DefaultMapIxxE@Base 2.41
 (arch=i386)_ZTI10DefaultMapIxyE@Base 2.41
 (arch=i386)_ZTI10DefaultMapIyP6VectorIiEE@Base 2.41
 (arch=i386)_ZTI10DefaultMapIyP8HeapDataE@Base 2.41
 (arch=i386)_ZTI10DefaultMapIyiE@Base 2.41
 _ZTI10Experiment@Base 2.41
 _ZTI10Expression@Base 2.41
 _ZTI10FieldDescr@Base 2.41
 _ZTI10LoadObject@Base 2.41
 _ZTI10PreviewExp@Base 2.41
 _ZTI10SAXParserP@Base 2.41
 _ZTI10SourceFile@Base 2.41
 _ZTI11Application@Base 2.41
 _ZTI11AttributesP@Base 2.41
 (arch=!x32)_ZTI11DbeCacheMapIy7JMethodE@Base 2.41
 _ZTI11DbeMessages@Base 2.41
 _ZTI11IndexObject@Base 2.41
 (arch=!x32)_ZTI11IntervalMapIxPvE@Base 2.41
 (arch=!x32)_ZTI11IntervalMapIxmE@Base 2.41
 (arch=i386)_ZTI11IntervalMapIxyE@Base 2.41
 (arch=!x32)_ZTI12DefaultMap2DIjxPvE@Base 2.41
 (arch=!x32)_ZTI12DefaultMap2DIjxmE@Base 2.41
 (arch=i386)_ZTI12DefaultMap2DIjxyE@Base 2.41
 _ZTI12HistableFile@Base 2.41
 _ZTI12SAXException@Base 2.41
 _ZTI13StringBuilder@Base 2.41
 _ZTI14DbeApplication@Base 2.41
 _ZTI14DefaultHandler@Base 2.41
 _ZTI14er_print_ctree@Base 2.41
 _ZTI14er_print_gprof@Base 2.41
 _ZTI16PacketDescriptor@Base 2.41
 _ZTI16SAXParserFactory@Base 2.41
 _ZTI17DataReadException@Base 2.41
 _ZTI17SAXParseException@Base 2.41
 _ZTI17SAXParserFactoryP@Base 2.41
 _ZTI17er_print_leaklist@Base 2.41
 _ZTI18BaseMetricTreeNode@Base 2.41
 _ZTI18er_print_histogram@Base 2.41
 _ZTI19er_print_experiment@Base 2.41
 _ZTI19er_print_ioactivity@Base 2.41
 _ZTI21er_print_heapactivity@Base 2.41
 _ZTI23er_print_common_display@Base 2.41
 _ZTI29ExperimentLoadCancelException@Base 2.41
 _ZTI3MapIP10LoadObjectiE@Base 2.41
 _ZTI3MapIP8FunctionS1_E@Base 2.41
 _ZTI3MapIP8FunctioniE@Base 2.41
 _ZTI3MapIP8FunctionlE@Base 2.41
 _ZTI3MapIP8HistableiE@Base 2.41
 _ZTI3MapIPKcP10DbeJarFileE@Base 2.41
 _ZTI3MapIPKcP10LoadObjectE@Base 2.41
 _ZTI3MapIPKcP10SourceFileE@Base 2.41
 _ZTI3MapIPKcP6SymbolE@Base 2.41
 _ZTI3MapIPKcP7DbeFileE@Base 2.41
 _ZTI3MapIPKciE@Base 2.41
 _ZTI3MapIPvP8FileDataE@Base 2.41
 _ZTI3MapIiP7DbeLineE@Base 2.41
 (arch=!x32)_ZTI3MapIilE@Base 2.41
 (arch=i386 x32)_ZTI3MapIixE@Base 2.41
 _ZTI3MapIjPS_IxPvEE@Base 2.41
 (arch=!x32)_ZTI3MapIjPS_IxmEE@Base 2.41
 (arch=i386 x32)_ZTI3MapIjPS_IxyEE@Base 2.41
 (arch=!x32)_ZTI3MapIlP8Dwr_typeE@Base 2.41
 _ZTI3MapIlP8FileDataE@Base 2.41
 (arch=!x32)_ZTI3MapImP13CallStackNodeE@Base 2.41
 (arch=!x32)_ZTI3MapImP6VectorIiEE@Base 2.41
 (arch=!x32)_ZTI3MapImP8HeapDataE@Base 2.41
 (arch=!x32)_ZTI3MapImiE@Base 2.41
 (arch=!x32)_ZTI3MapImlE@Base 2.41
 (arch=!x32)_ZTI3MapImmE@Base 2.41
 (arch=i386 x32)_ZTI3MapIxP8Dwr_typeE@Base 2.41
 (arch=i386 x32)_ZTI3MapIxP8FileDataE@Base 2.41
 _ZTI3MapIxPvE@Base 2.41
 _ZTI3MapIxlE@Base 2.41
 (arch=!x32)_ZTI3MapIxmE@Base 2.41
 _ZTI3MapIxxE@Base 2.41
 (arch=i386 x32)_ZTI3MapIxyE@Base 2.41
 (arch=i386 x32)_ZTI3MapIyP13CallStackNodeE@Base 2.41
 (arch=i386 x32)_ZTI3MapIyP6VectorIiEE@Base 2.41
 _ZTI3MapIyP7JMethodE@Base 2.41
 (arch=i386 x32)_ZTI3MapIyP8HeapDataE@Base 2.41
 (arch=i386 x32)_ZTI3MapIyiE@Base 2.41
 (arch=i386 x32)_ZTI3MapIylE@Base 2.41
 (arch=i386 x32)_ZTI3MapIyyE@Base 2.41
 _ZTI4Data@Base 2.41
 _ZTI5DbeEA@Base 2.41
 _ZTI5Map2DIjxPvE@Base 2.41
 (arch=!x32)_ZTI5Map2DIjxmE@Base 2.41
 (arch=i386 x32)_ZTI5Map2DIjxyE@Base 2.41
 (arch=!x32)_ZTI5Other@Base 2.41
 _ZTI6MemObj@Base 2.41
 _ZTI6Metric@Base 2.41
 _ZTI6Module@Base 2.41
 (arch=!x32)_ZTI6VectorI10int_pair_tE@Base 2.41
 (arch=!x32)_ZTI6VectorI11cpf_stabs_tE@Base 2.41
 (arch=!x32)_ZTI6VectorI9Aggr_typeE@Base 2.41
 (arch=!x32)_ZTI6VectorI9LibExpandE@Base 2.41
 (arch=!x32)_ZTI6VectorIN10Experiment17ExperimentHandler7ElementEE@Base 2.41
 (arch=!x32)_ZTI6VectorIP10BaseMetricE@Base 2.41
 (arch=!x32)_ZTI6VectorIP10DataObjectE@Base 2.41
 (arch=!x32)_ZTI6VectorIP10DbeJarFileE@Base 2.41
 (arch=!x32)_ZTI6VectorIP10DefaultMapIxlEE@Base 2.41
 (arch=!x32)_ZTI6VectorIP10DefaultMapIxxEE@Base 2.41
 (arch=!x32)_ZTI6VectorIP10ExperimentE@Base 2.41
 (arch=!x32)_ZTI6VectorIP10ExpressionE@Base 2.41
 (arch=!x32)_ZTI6VectorIP10FieldDescrE@Base 2.41
 (arch=!x32)_ZTI6VectorIP10LoadObjectE@Base 2.41
 (arch=!x32)_ZTI6VectorIP10MetricListE@Base 2.41
 (arch=!x32)_ZTI6VectorIP10SourceFileE@Base 2.41
 (arch=!x32)_ZTI6VectorIP10UnmapChunkE@Base 2.41
 (arch=!x32)_ZTI6VectorIP10datatype_tE@Base 2.41
 (arch=!x32)_ZTI6VectorIP10definitionE@Base 2.41
 (arch=!x32)_ZTI6VectorIP11DwrFileNameE@Base 2.41
 (arch=!x32)_ZTI6VectorIP11MemorySpaceE@Base 2.41
 (arch=!x32)_ZTI6VectorIP11inst_info_tE@Base 2.41
 (arch=!x32)_ZTI6VectorIP11lo_expand_tE@Base 2.41
 (arch=!x32)_ZTI6VectorIP12ByteCodeInfoE@Base 2.41
 (arch=!x32)_ZTI6VectorIP12MemObjType_tE@Base 2.41
 (arch=!x32)_ZTI6VectorIP12memop_info_tE@Base 2.41
 (arch=!x32)_ZTI6VectorIP13FilterNumericE@Base 2.41
 (arch=!x32)_ZTI6VectorIP13target_info_tE@Base 2.41
 (arch=!x32)_ZTI6VectorIP14DataDescriptorE@Base 2.41
 (arch=!x32)_ZTI6VectorIP14DwrInlinedSubrE@Base 2.41
 (arch=!x32)_ZTI6VectorIP14IndexObjType_tE@Base 2.41
 (arch=!x32)_ZTI6VectorIP16PacketDescriptorE@Base 2.41
 (arch=!x32)_ZTI6VectorIP18BaseMetricTreeNodeE@Base 2.41
 (arch=!x32)_ZTI6VectorIP3ElfE@Base 2.41
 (arch=!x32)_ZTI6VectorIP3MapIxPvEE@Base 2.41
 (arch=!x32)_ZTI6VectorIP3MapIxmEE@Base 2.41
 (arch=i386)_ZTI6VectorIP3MapIxyEE@Base 2.41
 (arch=!x32)_ZTI6VectorIP4ComCE@Base 2.41
 (arch=!x32)_ZTI6VectorIP4DataE@Base 2.41
 (arch=!x32)_ZTI6VectorIP4EmsgE@Base 2.41
 (arch=!x32)_ZTI6VectorIP5DbeEAE@Base 2.41
 (arch=!x32)_ZTI6VectorIP5DwrCUE@Base 2.41
 (arch=!x32)_ZTI6VectorIP5RelocE@Base 2.41
 (arch=!x32)_ZTI6VectorIP6MemObjE@Base 2.41
 (arch=!x32)_ZTI6VectorIP6MetricE@Base 2.41
 (arch=!x32)_ZTI6VectorIP6ModuleE@Base 2.41
 (arch=!x32)_ZTI6VectorIP6PCInfoE@Base 2.41
 (arch=!x32)_ZTI6VectorIP6SampleE@Base 2.41
 (arch=!x32)_ZTI6VectorIP6SegMemE@Base 2.41
 (arch=!x32)_ZTI6VectorIP6SymbolE@Base 2.41
 (arch=!x32)_ZTI6VectorIP7DbeFileE@Base 2.41
 (arch=!x32)_ZTI6VectorIP7DbeLineE@Base 2.41
 (arch=!x32)_ZTI6VectorIP7DbeViewE@Base 2.41
 (arch=!x32)_ZTI6VectorIP7DispTabE@Base 2.41
 (arch=!x32)_ZTI6VectorIP7DwrLineE@Base 2.41
 (arch=!x32)_ZTI6VectorIP7GCEventE@Base 2.41
 (arch=!x32)_ZTI6VectorIP7HashMapImP8HistableEE@Base 2.41
 (arch=i386)_ZTI6VectorIP7HashMapIyP8HistableEE@Base 2.41
 (arch=!x32)_ZTI6VectorIP7JThreadE@Base 2.41
 (arch=!x32)_ZTI6VectorIP8DataViewE@Base 2.41
 (arch=!x32)_ZTI6VectorIP8DbeInstrE@Base 2.41
 (arch=!x32)_ZTI6VectorIP8Dwr_typeE@Base 2.41
 (arch=!x32)_ZTI6VectorIP8ExpGroupE@Base 2.41
 (arch=!x32)_ZTI6VectorIP8FileDataE@Base 2.41
 (arch=!x32)_ZTI6VectorIP8FunctionE@Base 2.41
 (arch=!x32)_ZTI6VectorIP8HeapDataE@Base 2.41
 (arch=!x32)_ZTI6VectorIP8HistableE@Base 2.41
 (arch=!x32)_ZTI6VectorIP8HwcentryE@Base 2.41
 (arch=!x32)_ZTI6VectorIP8PathTreeE@Base 2.41
 (arch=!x32)_ZTI6VectorIP8ZipEntryE@Base 2.41
 (arch=!x32)_ZTI6VectorIP9CountableE@Base 2.41
 (arch=!x32)_ZTI6VectorIP9FilterSetE@Base 2.41
 (arch=!x32)_ZTI6VectorIP9Hist_dataE@Base 2.41
 (arch=!x32)_ZTI6VectorIP9PropDescrE@Base 2.41
 (arch=!x32)_ZTI6VectorIP9UserLabelE@Base 2.41
 (arch=!x32)_ZTI6VectorIP9pathmap_tE@Base 2.41
 (arch=!x32)_ZTI6VectorIPKcE@Base 2.41
 (arch=!x32)_ZTI6VectorIPN10DefaultMapIP10LoadObjectiE5EntryEE@Base 2.41
 (arch=!x32)_ZTI6VectorIPN10DefaultMapIP8FunctionS2_E5EntryEE@Base 2.41
 (arch=!x32)_ZTI6VectorIPN10DefaultMapIP8FunctioniE5EntryEE@Base 2.41
 (arch=!x32)_ZTI6VectorIPN10DefaultMapIP8FunctionlE5EntryEE@Base 2.41
 (arch=!x32)_ZTI6VectorIPN10DefaultMapIP8HistableiE5EntryEE@Base 2.41
 (arch=!x32)_ZTI6VectorIPN10DefaultMapIPvP8FileDataE5EntryEE@Base 2.41
 (arch=!x32)_ZTI6VectorIPN10DefaultMapIiP7DbeLineE5EntryEE@Base 2.41
 (arch=!x32)_ZTI6VectorIPN10DefaultMapIilE5EntryEE@Base 2.41
 (arch=i386)_ZTI6VectorIPN10DefaultMapIixE5EntryEE@Base 2.41
 (arch=!x32)_ZTI6VectorIPN10DefaultMapIjP3MapIxPvEE5EntryEE@Base 2.41
 (arch=!x32)_ZTI6VectorIPN10DefaultMapIjP3MapIxmEE5EntryEE@Base 2.41
 (arch=i386)_ZTI6VectorIPN10DefaultMapIjP3MapIxyEE5EntryEE@Base 2.41
 (arch=!x32)_ZTI6VectorIPN10DefaultMapIlP8Dwr_typeE5EntryEE@Base 2.41
 (arch=!x32)_ZTI6VectorIPN10DefaultMapIlP8FileDataE5EntryEE@Base 2.41
 (arch=!x32)_ZTI6VectorIPN10DefaultMapImP8HeapDataE5EntryEE@Base 2.41
 (arch=!x32)_ZTI6VectorIPN10DefaultMapImPS_IiEE5EntryEE@Base 2.41
 (arch=!x32)_ZTI6VectorIPN10DefaultMapImiE5EntryEE@Base 2.41
 (arch=i386)_ZTI6VectorIPN10DefaultMapIxP8Dwr_typeE5EntryEE@Base 2.41
 (arch=i386)_ZTI6VectorIPN10DefaultMapIxP8FileDataE5EntryEE@Base 2.41
 (arch=!x32)_ZTI6VectorIPN10DefaultMapIxPvE5EntryEE@Base 2.41
 (arch=!x32)_ZTI6VectorIPN10DefaultMapIxlE5EntryEE@Base 2.41
 (arch=!x32)_ZTI6VectorIPN10DefaultMapIxmE5EntryEE@Base 2.41
 (arch=!x32)_ZTI6VectorIPN10DefaultMapIxxE5EntryEE@Base 2.41
 (arch=i386)_ZTI6VectorIPN10DefaultMapIxyE5EntryEE@Base 2.41
 (arch=i386)_ZTI6VectorIPN10DefaultMapIyP8HeapDataE5EntryEE@Base 2.41
 (arch=i386)_ZTI6VectorIPN10DefaultMapIyPS_IiEE5EntryEE@Base 2.41
 (arch=i386)_ZTI6VectorIPN10DefaultMapIyiE5EntryEE@Base 2.41
 (arch=!x32)_ZTI6VectorIPN10Experiment14RawFramePacketEE@Base 2.41
 (arch=!x32)_ZTI6VectorIPN10Experiment7UIDnodeEE@Base 2.41
 (arch=!x32)_ZTI6VectorIPN10Experiment9MapRecordEE@Base 2.41
 (arch=!x32)_ZTI6VectorIPN10Stats_data10Stats_itemEE@Base 2.41
 (arch=!x32)_ZTI6VectorIPN11CStack_data11CStack_itemEE@Base 2.41
 (arch=!x32)_ZTI6VectorIPN11IntervalMapIxPvE5EntryEE@Base 2.41
 (arch=!x32)_ZTI6VectorIPN11IntervalMapIxmE5EntryEE@Base 2.41
 (arch=i386)_ZTI6VectorIPN11IntervalMapIxyE5EntryEE@Base 2.41
 (arch=!x32)_ZTI6VectorIPN13FilterNumeric9RangePairEE@Base 2.41
 (arch=!x32)_ZTI6VectorIPN7Include11SrcFileInfoEE@Base 2.41
 (arch=!x32)_ZTI6VectorIPN7PRBTree4LMapEE@Base 2.41
 (arch=!x32)_ZTI6VectorIPN8ElfReloc6SrelocEE@Base 2.41
 (arch=!x32)_ZTI6VectorIPN8Ovw_data8Ovw_itemEE@Base 2.41
 (arch=!x32)_ZTI6VectorIPN9Hist_data8HistItemEE@Base 2.41
 (arch=!x32)_ZTI6VectorIPN9StringMapIP10DbeJarFileE5EntryEE@Base 2.41
 (arch=!x32)_ZTI6VectorIPN9StringMapIP10LoadObjectE5EntryEE@Base 2.41
 (arch=!x32)_ZTI6VectorIPN9StringMapIP10SourceFileE5EntryEE@Base 2.41
 (arch=!x32)_ZTI6VectorIPN9StringMapIP6SymbolE5EntryEE@Base 2.41
 (arch=!x32)_ZTI6VectorIPN9StringMapIP7DbeFileE5EntryEE@Base 2.41
 (arch=!x32)_ZTI6VectorIPN9StringMapIiE5EntryEE@Base 2.41
 (arch=!x32)_ZTI6VectorIPS_IP8DataViewEE@Base 2.41
 (arch=!x32)_ZTI6VectorIPS_IP8HistableEE@Base 2.41
 (arch=!x32)_ZTI6VectorIPS_IPcEE@Base 2.41
 (arch=!x32)_ZTI6VectorIPS_IiEE@Base 2.41
 (arch=!x32)_ZTI6VectorIPS_IlEE@Base 2.41
 (arch=!x32)_ZTI6VectorIPS_IxEE@Base 2.41
 (arch=!x32)_ZTI6VectorIPcE@Base 2.41
 (arch=!x32)_ZTI6VectorIPvE@Base 2.41
 (arch=!x32)_ZTI6VectorIbE@Base 2.41
 (arch=!x32)_ZTI6VectorIcE@Base 2.41
 (arch=!x32)_ZTI6VectorIdE@Base 2.41
 (arch=!x32)_ZTI6VectorIiE@Base 2.41
 (arch=!x32)_ZTI6VectorIjE@Base 2.41
 (arch=!x32)_ZTI6VectorIlE@Base 2.41
 (arch=!x32)_ZTI6VectorImE@Base 2.41
 (arch=!x32)_ZTI6VectorIxE@Base 2.41
 (arch=!x32)_ZTI6VectorIyE@Base 2.41
 _ZTI7DbeLine@Base 2.41
 _ZTI7DbeLock@Base 2.41
 _ZTI7JMethod@Base 2.41
 (arch=!x32)_ZTI8CacheMapImP13CallStackNodeE@Base 2.41
 (arch=!x32)_ZTI8CacheMapImlE@Base 2.41
 (arch=!x32)_ZTI8CacheMapImmE@Base 2.41
 (arch=i386)_ZTI8CacheMapIyP13CallStackNodeE@Base 2.41
 (arch=i386)_ZTI8CacheMapIylE@Base 2.41
 (arch=i386)_ZTI8CacheMapIyyE@Base 2.41
 _ZTI8DataView@Base 2.41
 (arch=!x32)_ZTI8DbeArrayI14DwrAbbrevTableE@Base 2.41
 (arch=!x32)_ZTI8DbeArrayI8Dwr_AttrE@Base 2.41
 _ZTI8DbeInstr@Base 2.41
 _ZTI8FileData@Base 2.41
 _ZTI8Function@Base 2.41
 _ZTI8HeapData@Base 2.41
 _ZTI8Histable@Base 2.41
 _ZTI8Settings@Base 2.41
 _ZTI9CallStack@Base 2.41
 _ZTI9ClassFile@Base 2.41
 (arch=!x32)_ZTI9DataINT32@Base 2.41
 (arch=!x32)_ZTI9DataINT64@Base 2.41
 _ZTI9Hist_data@Base 2.41
 _ZTI9PropDescr@Base 2.41
 _ZTI9SAXParser@Base 2.41
 (arch=!x32)_ZTI9StringMapIP10DbeJarFileE@Base 2.41
 (arch=!x32)_ZTI9StringMapIP10LoadObjectE@Base 2.41
 (arch=!x32)_ZTI9StringMapIP10SourceFileE@Base 2.41
 (arch=!x32)_ZTI9StringMapIP6SymbolE@Base 2.41
 (arch=!x32)_ZTI9StringMapIP7DbeFileE@Base 2.41
 (arch=!x32)_ZTI9StringMapIiE@Base 2.41
 _ZTIN10Experiment17ExperimentHandlerE@Base 2.41
 _ZTIN10Experiment23ExperimentLabelsHandlerE@Base 2.41
 _ZTIN2QL6Parser12syntax_errorE@Base 2.41
 _ZTIN2QL6ParserE@Base 2.41
 _ZTINSt7__cxx1112basic_stringIcSt11char_traitsIcESaIcEEE@Base 2.41
 _ZTIP10Expression@Base 2.41
 _ZTIP12SAXException@Base 2.41
 _ZTIP17DataReadException@Base 2.41
 _ZTIP17SAXParseException@Base 2.41
 _ZTIP29ExperimentLoadCancelException@Base 2.41
 _ZTIPSt9bad_alloc@Base 2.41
 _ZTS10Attributes@Base 2.41
 _ZTS10BaseMetric@Base 2.41
 _ZTS10CallStackP@Base 2.41
 _ZTS10DataDOUBLE@Base 2.41
 _ZTS10DataOBJECT@Base 2.41
 _ZTS10DataObject@Base 2.41
 _ZTS10DataSTRING@Base 2.41
 _ZTS10DataUINT32@Base 2.41
 _ZTS10DataUINT64@Base 2.41
 _ZTS10DbeSyncMapI10LoadObjectE@Base 2.41
 _ZTS10DefaultMapIP10LoadObjectiE@Base 2.41
 _ZTS10DefaultMapIP8FunctionS1_E@Base 2.41
 _ZTS10DefaultMapIP8FunctioniE@Base 2.41
 _ZTS10DefaultMapIP8FunctionlE@Base 2.41
 _ZTS10DefaultMapIP8HistableiE@Base 2.41
 _ZTS10DefaultMapIPvP8FileDataE@Base 2.41
 _ZTS10DefaultMapIiP7DbeLineE@Base 2.41
 (arch=!x32)_ZTS10DefaultMapIilE@Base 2.41
 (arch=i386 x32)_ZTS10DefaultMapIixE@Base 2.41
 _ZTS10DefaultMapIjP3MapIxPvEE@Base 2.41
 (arch=!x32)_ZTS10DefaultMapIjP3MapIxmEE@Base 2.41
 (arch=i386 x32)_ZTS10DefaultMapIjP3MapIxyEE@Base 2.41
 (arch=!x32)_ZTS10DefaultMapIlP8Dwr_typeE@Base 2.41
 _ZTS10DefaultMapIlP8FileDataE@Base 2.41
 (arch=!x32)_ZTS10DefaultMapImP6VectorIiEE@Base 2.41
 (arch=!x32)_ZTS10DefaultMapImP8HeapDataE@Base 2.41
 (arch=!x32)_ZTS10DefaultMapImiE@Base 2.41
 (arch=i386 x32)_ZTS10DefaultMapIxP8Dwr_typeE@Base 2.41
 (arch=i386 x32)_ZTS10DefaultMapIxP8FileDataE@Base 2.41
 _ZTS10DefaultMapIxPvE@Base 2.41
 _ZTS10DefaultMapIxlE@Base 2.41
 (arch=!x32)_ZTS10DefaultMapIxmE@Base 2.41
 _ZTS10DefaultMapIxxE@Base 2.41
 (arch=i386 x32)_ZTS10DefaultMapIxyE@Base 2.41
 (arch=i386 x32)_ZTS10DefaultMapIyP6VectorIiEE@Base 2.41
 (arch=i386 x32)_ZTS10DefaultMapIyP8HeapDataE@Base 2.41
 (arch=i386 x32)_ZTS10DefaultMapIyiE@Base 2.41
 _ZTS10Experiment@Base 2.41
 _ZTS10Expression@Base 2.41
 _ZTS10FieldDescr@Base 2.41
 _ZTS10LoadObject@Base 2.41
 _ZTS10PreviewExp@Base 2.41
 _ZTS10SAXParserP@Base 2.41
 _ZTS10SourceFile@Base 2.41
 _ZTS11Application@Base 2.41
 _ZTS11AttributesP@Base 2.41
 _ZTS11DbeCacheMapIy7JMethodE@Base 2.41
 _ZTS11DbeMessages@Base 2.41
 _ZTS11IndexObject@Base 2.41
 _ZTS11IntervalMapIxPvE@Base 2.41
 (arch=!x32)_ZTS11IntervalMapIxmE@Base 2.41
 (arch=i386 x32)_ZTS11IntervalMapIxyE@Base 2.41
 _ZTS12DefaultMap2DIjxPvE@Base 2.41
 (arch=!x32)_ZTS12DefaultMap2DIjxmE@Base 2.41
 (arch=i386 x32)_ZTS12DefaultMap2DIjxyE@Base 2.41
 _ZTS12HistableFile@Base 2.41
 _ZTS12SAXException@Base 2.41
 _ZTS13StringBuilder@Base 2.41
 _ZTS14DbeApplication@Base 2.41
 _ZTS14DefaultHandler@Base 2.41
 _ZTS14er_print_ctree@Base 2.41
 _ZTS14er_print_gprof@Base 2.41
 _ZTS16PacketDescriptor@Base 2.41
 _ZTS16SAXParserFactory@Base 2.41
 _ZTS17DataReadException@Base 2.41
 _ZTS17SAXParseException@Base 2.41
 _ZTS17SAXParserFactoryP@Base 2.41
 _ZTS17er_print_leaklist@Base 2.41
 _ZTS18BaseMetricTreeNode@Base 2.41
 _ZTS18er_print_histogram@Base 2.41
 _ZTS19er_print_experiment@Base 2.41
 _ZTS19er_print_ioactivity@Base 2.41
 _ZTS21er_print_heapactivity@Base 2.41
 _ZTS23er_print_common_display@Base 2.41
 _ZTS29ExperimentLoadCancelException@Base 2.41
 _ZTS3MapIP10LoadObjectiE@Base 2.41
 _ZTS3MapIP8FunctionS1_E@Base 2.41
 _ZTS3MapIP8FunctioniE@Base 2.41
 _ZTS3MapIP8FunctionlE@Base 2.41
 _ZTS3MapIP8HistableiE@Base 2.41
 _ZTS3MapIPKcP10DbeJarFileE@Base 2.41
 _ZTS3MapIPKcP10LoadObjectE@Base 2.41
 _ZTS3MapIPKcP10SourceFileE@Base 2.41
 _ZTS3MapIPKcP6SymbolE@Base 2.41
 _ZTS3MapIPKcP7DbeFileE@Base 2.41
 _ZTS3MapIPKciE@Base 2.41
 _ZTS3MapIPvP8FileDataE@Base 2.41
 _ZTS3MapIiP7DbeLineE@Base 2.41
 (arch=!x32)_ZTS3MapIilE@Base 2.41
 (arch=i386 x32)_ZTS3MapIixE@Base 2.41
 _ZTS3MapIjPS_IxPvEE@Base 2.41
 (arch=!x32)_ZTS3MapIjPS_IxmEE@Base 2.41
 (arch=i386 x32)_ZTS3MapIjPS_IxyEE@Base 2.41
 (arch=!x32)_ZTS3MapIlP8Dwr_typeE@Base 2.41
 _ZTS3MapIlP8FileDataE@Base 2.41
 (arch=!x32)_ZTS3MapImP13CallStackNodeE@Base 2.41
 (arch=!x32)_ZTS3MapImP6VectorIiEE@Base 2.41
 (arch=!x32)_ZTS3MapImP8HeapDataE@Base 2.41
 (arch=!x32)_ZTS3MapImiE@Base 2.41
 (arch=!x32)_ZTS3MapImlE@Base 2.41
 (arch=!x32)_ZTS3MapImmE@Base 2.41
 (arch=i386 x32)_ZTS3MapIxP8Dwr_typeE@Base 2.41
 (arch=i386 x32)_ZTS3MapIxP8FileDataE@Base 2.41
 _ZTS3MapIxPvE@Base 2.41
 _ZTS3MapIxlE@Base 2.41
 (arch=!x32)_ZTS3MapIxmE@Base 2.41
 _ZTS3MapIxxE@Base 2.41
 (arch=i386 x32)_ZTS3MapIxyE@Base 2.41
 (arch=i386 x32)_ZTS3MapIyP13CallStackNodeE@Base 2.41
 (arch=i386 x32)_ZTS3MapIyP6VectorIiEE@Base 2.41
 _ZTS3MapIyP7JMethodE@Base 2.41
 (arch=i386 x32)_ZTS3MapIyP8HeapDataE@Base 2.41
 (arch=i386 x32)_ZTS3MapIyiE@Base 2.41
 (arch=i386 x32)_ZTS3MapIylE@Base 2.41
 (arch=i386 x32)_ZTS3MapIyyE@Base 2.41
 _ZTS4Data@Base 2.41
 _ZTS5DbeEA@Base 2.41
 _ZTS5Map2DIjxPvE@Base 2.41
 (arch=!x32)_ZTS5Map2DIjxmE@Base 2.41
 (arch=i386 x32)_ZTS5Map2DIjxyE@Base 2.41
 _ZTS5Other@Base 2.41
 _ZTS6MemObj@Base 2.41
 _ZTS6Metric@Base 2.41
 _ZTS6Module@Base 2.41
 _ZTS6VectorI10int_pair_tE@Base 2.41
 _ZTS6VectorI11cpf_stabs_tE@Base 2.41
 _ZTS6VectorI9Aggr_typeE@Base 2.41
 _ZTS6VectorI9LibExpandE@Base 2.41
 _ZTS6VectorIN10Experiment17ExperimentHandler7ElementEE@Base 2.41
 _ZTS6VectorIP10BaseMetricE@Base 2.41
 _ZTS6VectorIP10DataObjectE@Base 2.41
 _ZTS6VectorIP10DbeJarFileE@Base 2.41
 _ZTS6VectorIP10DefaultMapIxlEE@Base 2.41
 _ZTS6VectorIP10DefaultMapIxxEE@Base 2.41
 _ZTS6VectorIP10ExperimentE@Base 2.41
 _ZTS6VectorIP10ExpressionE@Base 2.41
 _ZTS6VectorIP10FieldDescrE@Base 2.41
 _ZTS6VectorIP10LoadObjectE@Base 2.41
 _ZTS6VectorIP10MetricListE@Base 2.41
 _ZTS6VectorIP10SourceFileE@Base 2.41
 _ZTS6VectorIP10UnmapChunkE@Base 2.41
 _ZTS6VectorIP10datatype_tE@Base 2.41
 _ZTS6VectorIP10definitionE@Base 2.41
 _ZTS6VectorIP11DwrFileNameE@Base 2.41
 _ZTS6VectorIP11MemorySpaceE@Base 2.41
 _ZTS6VectorIP11inst_info_tE@Base 2.41
 _ZTS6VectorIP11lo_expand_tE@Base 2.41
 _ZTS6VectorIP12ByteCodeInfoE@Base 2.41
 _ZTS6VectorIP12MemObjType_tE@Base 2.41
 _ZTS6VectorIP12memop_info_tE@Base 2.41
 _ZTS6VectorIP13FilterNumericE@Base 2.41
 _ZTS6VectorIP13target_info_tE@Base 2.41
 _ZTS6VectorIP14DataDescriptorE@Base 2.41
 _ZTS6VectorIP14DwrInlinedSubrE@Base 2.41
 _ZTS6VectorIP14IndexObjType_tE@Base 2.41
 _ZTS6VectorIP16PacketDescriptorE@Base 2.41
 _ZTS6VectorIP18BaseMetricTreeNodeE@Base 2.41
 _ZTS6VectorIP3ElfE@Base 2.41
 _ZTS6VectorIP3MapIxPvEE@Base 2.41
 (arch=!x32)_ZTS6VectorIP3MapIxmEE@Base 2.41
 (arch=i386 x32)_ZTS6VectorIP3MapIxyEE@Base 2.41
 _ZTS6VectorIP4ComCE@Base 2.41
 _ZTS6VectorIP4DataE@Base 2.41
 _ZTS6VectorIP4EmsgE@Base 2.41
 _ZTS6VectorIP5DbeEAE@Base 2.41
 _ZTS6VectorIP5DwrCUE@Base 2.41
 _ZTS6VectorIP5RelocE@Base 2.41
 _ZTS6VectorIP6MemObjE@Base 2.41
 _ZTS6VectorIP6MetricE@Base 2.41
 _ZTS6VectorIP6ModuleE@Base 2.41
 _ZTS6VectorIP6PCInfoE@Base 2.41
 _ZTS6VectorIP6SampleE@Base 2.41
 _ZTS6VectorIP6SegMemE@Base 2.41
 _ZTS6VectorIP6SymbolE@Base 2.41
 _ZTS6VectorIP7DbeFileE@Base 2.41
 _ZTS6VectorIP7DbeLineE@Base 2.41
 _ZTS6VectorIP7DbeViewE@Base 2.41
 _ZTS6VectorIP7DispTabE@Base 2.41
 _ZTS6VectorIP7DwrLineE@Base 2.41
 _ZTS6VectorIP7GCEventE@Base 2.41
 (arch=!x32)_ZTS6VectorIP7HashMapImP8HistableEE@Base 2.41
 (arch=i386 x32)_ZTS6VectorIP7HashMapIyP8HistableEE@Base 2.41
 _ZTS6VectorIP7JThreadE@Base 2.41
 _ZTS6VectorIP8DataViewE@Base 2.41
 _ZTS6VectorIP8DbeInstrE@Base 2.41
 _ZTS6VectorIP8Dwr_typeE@Base 2.41
 _ZTS6VectorIP8ExpGroupE@Base 2.41
 _ZTS6VectorIP8FileDataE@Base 2.41
 _ZTS6VectorIP8FunctionE@Base 2.41
 _ZTS6VectorIP8HeapDataE@Base 2.41
 _ZTS6VectorIP8HistableE@Base 2.41
 _ZTS6VectorIP8HwcentryE@Base 2.41
 _ZTS6VectorIP8PathTreeE@Base 2.41
 _ZTS6VectorIP8ZipEntryE@Base 2.41
 _ZTS6VectorIP9CountableE@Base 2.41
 _ZTS6VectorIP9FilterSetE@Base 2.41
 _ZTS6VectorIP9Hist_dataE@Base 2.41
 _ZTS6VectorIP9PropDescrE@Base 2.41
 _ZTS6VectorIP9UserLabelE@Base 2.41
 _ZTS6VectorIP9pathmap_tE@Base 2.41
 _ZTS6VectorIPKcE@Base 2.41
 _ZTS6VectorIPN10DefaultMapIP10LoadObjectiE5EntryEE@Base 2.41
 _ZTS6VectorIPN10DefaultMapIP8FunctionS2_E5EntryEE@Base 2.41
 _ZTS6VectorIPN10DefaultMapIP8FunctioniE5EntryEE@Base 2.41
 _ZTS6VectorIPN10DefaultMapIP8FunctionlE5EntryEE@Base 2.41
 _ZTS6VectorIPN10DefaultMapIP8HistableiE5EntryEE@Base 2.41
 _ZTS6VectorIPN10DefaultMapIPvP8FileDataE5EntryEE@Base 2.41
 _ZTS6VectorIPN10DefaultMapIiP7DbeLineE5EntryEE@Base 2.41
 (arch=!x32)_ZTS6VectorIPN10DefaultMapIilE5EntryEE@Base 2.41
 (arch=i386 x32)_ZTS6VectorIPN10DefaultMapIixE5EntryEE@Base 2.41
 _ZTS6VectorIPN10DefaultMapIjP3MapIxPvEE5EntryEE@Base 2.41
 (arch=!x32)_ZTS6VectorIPN10DefaultMapIjP3MapIxmEE5EntryEE@Base 2.41
 (arch=i386 x32)_ZTS6VectorIPN10DefaultMapIjP3MapIxyEE5EntryEE@Base 2.41
 (arch=!x32)_ZTS6VectorIPN10DefaultMapIlP8Dwr_typeE5EntryEE@Base 2.41
 _ZTS6VectorIPN10DefaultMapIlP8FileDataE5EntryEE@Base 2.41
 (arch=!x32)_ZTS6VectorIPN10DefaultMapImP8HeapDataE5EntryEE@Base 2.41
 (arch=!x32)_ZTS6VectorIPN10DefaultMapImPS_IiEE5EntryEE@Base 2.41
 (arch=!x32)_ZTS6VectorIPN10DefaultMapImiE5EntryEE@Base 2.41
 (arch=i386 x32)_ZTS6VectorIPN10DefaultMapIxP8Dwr_typeE5EntryEE@Base 2.41
 (arch=i386 x32)_ZTS6VectorIPN10DefaultMapIxP8FileDataE5EntryEE@Base 2.41
 _ZTS6VectorIPN10DefaultMapIxPvE5EntryEE@Base 2.41
 _ZTS6VectorIPN10DefaultMapIxlE5EntryEE@Base 2.41
 (arch=!x32)_ZTS6VectorIPN10DefaultMapIxmE5EntryEE@Base 2.41
 _ZTS6VectorIPN10DefaultMapIxxE5EntryEE@Base 2.41
 (arch=i386 x32)_ZTS6VectorIPN10DefaultMapIxyE5EntryEE@Base 2.41
 (arch=i386 x32)_ZTS6VectorIPN10DefaultMapIyP8HeapDataE5EntryEE@Base 2.41
 (arch=i386 x32)_ZTS6VectorIPN10DefaultMapIyPS_IiEE5EntryEE@Base 2.41
 (arch=i386 x32)_ZTS6VectorIPN10DefaultMapIyiE5EntryEE@Base 2.41
 _ZTS6VectorIPN10Experiment14RawFramePacketEE@Base 2.41
 _ZTS6VectorIPN10Experiment7UIDnodeEE@Base 2.41
 _ZTS6VectorIPN10Experiment9MapRecordEE@Base 2.41
 _ZTS6VectorIPN10Stats_data10Stats_itemEE@Base 2.41
 _ZTS6VectorIPN11CStack_data11CStack_itemEE@Base 2.41
 _ZTS6VectorIPN11IntervalMapIxPvE5EntryEE@Base 2.41
 (arch=!x32)_ZTS6VectorIPN11IntervalMapIxmE5EntryEE@Base 2.41
 (arch=i386 x32)_ZTS6VectorIPN11IntervalMapIxyE5EntryEE@Base 2.41
 _ZTS6VectorIPN13FilterNumeric9RangePairEE@Base 2.41
 _ZTS6VectorIPN7Include11SrcFileInfoEE@Base 2.41
 _ZTS6VectorIPN7PRBTree4LMapEE@Base 2.41
 _ZTS6VectorIPN8ElfReloc6SrelocEE@Base 2.41
 _ZTS6VectorIPN8Ovw_data8Ovw_itemEE@Base 2.41
 _ZTS6VectorIPN9Hist_data8HistItemEE@Base 2.41
 _ZTS6VectorIPN9StringMapIP10DbeJarFileE5EntryEE@Base 2.41
 _ZTS6VectorIPN9StringMapIP10LoadObjectE5EntryEE@Base 2.41
 _ZTS6VectorIPN9StringMapIP10SourceFileE5EntryEE@Base 2.41
 _ZTS6VectorIPN9StringMapIP6SymbolE5EntryEE@Base 2.41
 _ZTS6VectorIPN9StringMapIP7DbeFileE5EntryEE@Base 2.41
 _ZTS6VectorIPN9StringMapIiE5EntryEE@Base 2.41
 _ZTS6VectorIPS_IP8DataViewEE@Base 2.41
 _ZTS6VectorIPS_IP8HistableEE@Base 2.41
 _ZTS6VectorIPS_IPcEE@Base 2.41
 _ZTS6VectorIPS_IiEE@Base 2.41
 _ZTS6VectorIPS_IlEE@Base 2.41
 _ZTS6VectorIPS_IxEE@Base 2.41
 _ZTS6VectorIPcE@Base 2.41
 _ZTS6VectorIPvE@Base 2.41
 _ZTS6VectorIbE@Base 2.41
 _ZTS6VectorIcE@Base 2.41
 _ZTS6VectorIdE@Base 2.41
 _ZTS6VectorIiE@Base 2.41
 _ZTS6VectorIjE@Base 2.41
 _ZTS6VectorIlE@Base 2.41
 _ZTS6VectorImE@Base 2.41
 _ZTS6VectorIxE@Base 2.41
 _ZTS6VectorIyE@Base 2.41
 _ZTS7DbeLine@Base 2.41
 _ZTS7DbeLock@Base 2.41
 _ZTS7JMethod@Base 2.41
 (arch=!x32)_ZTS8CacheMapImP13CallStackNodeE@Base 2.41
 (arch=!x32)_ZTS8CacheMapImlE@Base 2.41
 (arch=!x32)_ZTS8CacheMapImmE@Base 2.41
 (arch=i386 x32)_ZTS8CacheMapIyP13CallStackNodeE@Base 2.41
 (arch=i386 x32)_ZTS8CacheMapIylE@Base 2.41
 (arch=i386 x32)_ZTS8CacheMapIyyE@Base 2.41
 _ZTS8DataView@Base 2.41
 _ZTS8DbeArrayI14DwrAbbrevTableE@Base 2.41
 _ZTS8DbeArrayI8Dwr_AttrE@Base 2.41
 _ZTS8DbeInstr@Base 2.41
 _ZTS8FileData@Base 2.41
 _ZTS8Function@Base 2.41
 _ZTS8HeapData@Base 2.41
 _ZTS8Histable@Base 2.41
 _ZTS8Settings@Base 2.41
 _ZTS9CallStack@Base 2.41
 _ZTS9ClassFile@Base 2.41
 _ZTS9DataINT32@Base 2.41
 _ZTS9DataINT64@Base 2.41
 _ZTS9Hist_data@Base 2.41
 _ZTS9PropDescr@Base 2.41
 _ZTS9SAXParser@Base 2.41
 _ZTS9StringMapIP10DbeJarFileE@Base 2.41
 _ZTS9StringMapIP10LoadObjectE@Base 2.41
 _ZTS9StringMapIP10SourceFileE@Base 2.41
 _ZTS9StringMapIP6SymbolE@Base 2.41
 _ZTS9StringMapIP7DbeFileE@Base 2.41
 _ZTS9StringMapIiE@Base 2.41
 _ZTSN10Experiment17ExperimentHandlerE@Base 2.41
 _ZTSN10Experiment23ExperimentLabelsHandlerE@Base 2.41
 _ZTSN2QL6Parser12syntax_errorE@Base 2.41
 _ZTSN2QL6ParserE@Base 2.41
 _ZTSNSt7__cxx1112basic_stringIcSt11char_traitsIcESaIcEEE@Base 2.41
 _ZTSP10Expression@Base 2.41
 _ZTSP12SAXException@Base 2.41
 _ZTSP17DataReadException@Base 2.41
 _ZTSP17SAXParseException@Base 2.41
 _ZTSP29ExperimentLoadCancelException@Base 2.41
 _ZTSPSt9bad_alloc@Base 2.41
 _ZTV10BaseMetric@Base 2.41
 _ZTV10CallStackP@Base 2.41
 (arch=!x32)_ZTV10DataDOUBLE@Base 2.41
 (arch=!x32)_ZTV10DataOBJECT@Base 2.41
 _ZTV10DataObject@Base 2.41
 (arch=!x32)_ZTV10DataSTRING@Base 2.41
 (arch=!x32)_ZTV10DataUINT32@Base 2.41
 (arch=!x32)_ZTV10DataUINT64@Base 2.41
 (arch=!x32)_ZTV10DbeSyncMapI10LoadObjectE@Base 2.41
 (arch=!x32)_ZTV10DefaultMapIP10LoadObjectiE@Base 2.41
 (arch=!x32)_ZTV10DefaultMapIP8FunctionS1_E@Base 2.41
 (arch=!x32)_ZTV10DefaultMapIP8FunctioniE@Base 2.41
 (arch=!x32)_ZTV10DefaultMapIP8FunctionlE@Base 2.41
 (arch=!x32)_ZTV10DefaultMapIP8HistableiE@Base 2.41
 (arch=!x32)_ZTV10DefaultMapIPvP8FileDataE@Base 2.41
 (arch=!x32)_ZTV10DefaultMapIiP7DbeLineE@Base 2.41
 (arch=!x32)_ZTV10DefaultMapIilE@Base 2.41
 (arch=i386)_ZTV10DefaultMapIixE@Base 2.41
 (arch=!x32)_ZTV10DefaultMapIjP3MapIxPvEE@Base 2.41
 (arch=!x32)_ZTV10DefaultMapIjP3MapIxmEE@Base 2.41
 (arch=i386)_ZTV10DefaultMapIjP3MapIxyEE@Base 2.41
 (arch=!x32)_ZTV10DefaultMapIlP8Dwr_typeE@Base 2.41
 (arch=!x32)_ZTV10DefaultMapIlP8FileDataE@Base 2.41
 (arch=!x32)_ZTV10DefaultMapImP6VectorIiEE@Base 2.41
 (arch=!x32)_ZTV10DefaultMapImP8HeapDataE@Base 2.41
 (arch=!x32)_ZTV10DefaultMapImiE@Base 2.41
 (arch=i386)_ZTV10DefaultMapIxP8Dwr_typeE@Base 2.41
 (arch=i386)_ZTV10DefaultMapIxP8FileDataE@Base 2.41
 (arch=!x32)_ZTV10DefaultMapIxPvE@Base 2.41
 (arch=!x32)_ZTV10DefaultMapIxlE@Base 2.41
 (arch=!x32)_ZTV10DefaultMapIxmE@Base 2.41
 (arch=!x32)_ZTV10DefaultMapIxxE@Base 2.41
 (arch=i386)_ZTV10DefaultMapIxyE@Base 2.41
 (arch=i386)_ZTV10DefaultMapIyP6VectorIiEE@Base 2.41
 (arch=i386)_ZTV10DefaultMapIyP8HeapDataE@Base 2.41
 (arch=i386)_ZTV10DefaultMapIyiE@Base 2.41
 _ZTV10Experiment@Base 2.41
 _ZTV10FieldDescr@Base 2.41
 _ZTV10LoadObject@Base 2.41
 _ZTV10PreviewExp@Base 2.41
 _ZTV10SAXParserP@Base 2.41
 _ZTV10SourceFile@Base 2.41
 _ZTV11Application@Base 2.41
 _ZTV11AttributesP@Base 2.41
 (arch=!x32)_ZTV11DbeCacheMapIy7JMethodE@Base 2.41
 _ZTV11IndexObject@Base 2.41
 (arch=!x32)_ZTV11IntervalMapIxPvE@Base 2.41
 (arch=!x32)_ZTV11IntervalMapIxmE@Base 2.41
 (arch=i386)_ZTV11IntervalMapIxyE@Base 2.41
 (arch=!x32)_ZTV12DefaultMap2DIjxPvE@Base 2.41
 (arch=!x32)_ZTV12DefaultMap2DIjxmE@Base 2.41
 (arch=i386)_ZTV12DefaultMap2DIjxyE@Base 2.41
 (arch=!x32)_ZTV12HistableFile@Base 2.41
 _ZTV12SAXException@Base 2.41
 _ZTV13StringBuilder@Base 2.41
 _ZTV14DbeApplication@Base 2.41
 _ZTV14er_print_ctree@Base 2.41
 _ZTV14er_print_gprof@Base 2.41
 _ZTV16PacketDescriptor@Base 2.41
 (arch=!x32)_ZTV17SAXParseException@Base 2.41
 _ZTV17SAXParserFactoryP@Base 2.41
 _ZTV17er_print_leaklist@Base 2.41
 _ZTV18BaseMetricTreeNode@Base 2.41
 _ZTV18er_print_histogram@Base 2.41
 _ZTV19er_print_experiment@Base 2.41
 _ZTV19er_print_ioactivity@Base 2.41
 _ZTV21er_print_heapactivity@Base 2.41
 _ZTV5DbeEA@Base 2.41
 (arch=!x32)_ZTV5Other@Base 2.41
 _ZTV6MemObj@Base 2.41
 _ZTV6Metric@Base 2.41
 _ZTV6Module@Base 2.41
 (arch=!x32)_ZTV6VectorI10int_pair_tE@Base 2.41
 (arch=!x32)_ZTV6VectorI11cpf_stabs_tE@Base 2.41
 (arch=!x32)_ZTV6VectorI9Aggr_typeE@Base 2.41
 (arch=!x32)_ZTV6VectorI9LibExpandE@Base 2.41
 (arch=!x32)_ZTV6VectorIN10Experiment17ExperimentHandler7ElementEE@Base 2.41
 (arch=!x32)_ZTV6VectorIP10BaseMetricE@Base 2.41
 (arch=!x32)_ZTV6VectorIP10DataObjectE@Base 2.41
 (arch=!x32)_ZTV6VectorIP10DbeJarFileE@Base 2.41
 (arch=!x32)_ZTV6VectorIP10DefaultMapIxlEE@Base 2.41
 (arch=!x32)_ZTV6VectorIP10DefaultMapIxxEE@Base 2.41
 (arch=!x32)_ZTV6VectorIP10ExperimentE@Base 2.41
 (arch=!x32)_ZTV6VectorIP10ExpressionE@Base 2.41
 (arch=!x32)_ZTV6VectorIP10FieldDescrE@Base 2.41
 (arch=!x32)_ZTV6VectorIP10LoadObjectE@Base 2.41
 (arch=!x32)_ZTV6VectorIP10MetricListE@Base 2.41
 (arch=!x32)_ZTV6VectorIP10SourceFileE@Base 2.41
 (arch=!x32)_ZTV6VectorIP10UnmapChunkE@Base 2.41
 (arch=!x32)_ZTV6VectorIP10datatype_tE@Base 2.41
 (arch=!x32)_ZTV6VectorIP10definitionE@Base 2.41
 (arch=!x32)_ZTV6VectorIP11DwrFileNameE@Base 2.41
 (arch=!x32)_ZTV6VectorIP11MemorySpaceE@Base 2.41
 (arch=!x32)_ZTV6VectorIP11inst_info_tE@Base 2.41
 (arch=!x32)_ZTV6VectorIP11lo_expand_tE@Base 2.41
 (arch=!x32)_ZTV6VectorIP12ByteCodeInfoE@Base 2.41
 (arch=!x32)_ZTV6VectorIP12MemObjType_tE@Base 2.41
 (arch=!x32)_ZTV6VectorIP12memop_info_tE@Base 2.41
 (arch=!x32)_ZTV6VectorIP13FilterNumericE@Base 2.41
 (arch=!x32)_ZTV6VectorIP13target_info_tE@Base 2.41
 (arch=!x32)_ZTV6VectorIP14DataDescriptorE@Base 2.41
 (arch=!x32)_ZTV6VectorIP14DwrInlinedSubrE@Base 2.41
 (arch=!x32)_ZTV6VectorIP14IndexObjType_tE@Base 2.41
 (arch=!x32)_ZTV6VectorIP16PacketDescriptorE@Base 2.41
 (arch=!x32)_ZTV6VectorIP18BaseMetricTreeNodeE@Base 2.41
 (arch=!x32)_ZTV6VectorIP3ElfE@Base 2.41
 (arch=!x32)_ZTV6VectorIP3MapIxPvEE@Base 2.41
 (arch=!x32)_ZTV6VectorIP3MapIxmEE@Base 2.41
 (arch=i386)_ZTV6VectorIP3MapIxyEE@Base 2.41
 (arch=!x32)_ZTV6VectorIP4ComCE@Base 2.41
 (arch=!x32)_ZTV6VectorIP4DataE@Base 2.41
 (arch=!x32)_ZTV6VectorIP4EmsgE@Base 2.41
 (arch=!x32)_ZTV6VectorIP5DbeEAE@Base 2.41
 (arch=!x32)_ZTV6VectorIP5DwrCUE@Base 2.41
 (arch=!x32)_ZTV6VectorIP5RelocE@Base 2.41
 (arch=!x32)_ZTV6VectorIP6MemObjE@Base 2.41
 (arch=!x32)_ZTV6VectorIP6MetricE@Base 2.41
 (arch=!x32)_ZTV6VectorIP6ModuleE@Base 2.41
 (arch=!x32)_ZTV6VectorIP6PCInfoE@Base 2.41
 (arch=!x32)_ZTV6VectorIP6SampleE@Base 2.41
 (arch=!x32)_ZTV6VectorIP6SegMemE@Base 2.41
 (arch=!x32)_ZTV6VectorIP6SymbolE@Base 2.41
 (arch=!x32)_ZTV6VectorIP7DbeFileE@Base 2.41
 (arch=!x32)_ZTV6VectorIP7DbeLineE@Base 2.41
 (arch=!x32)_ZTV6VectorIP7DbeViewE@Base 2.41
 (arch=!x32)_ZTV6VectorIP7DispTabE@Base 2.41
 (arch=!x32)_ZTV6VectorIP7DwrLineE@Base 2.41
 (arch=!x32)_ZTV6VectorIP7GCEventE@Base 2.41
 (arch=!x32)_ZTV6VectorIP7HashMapImP8HistableEE@Base 2.41
 (arch=i386)_ZTV6VectorIP7HashMapIyP8HistableEE@Base 2.41
 (arch=!x32)_ZTV6VectorIP7JThreadE@Base 2.41
 (arch=!x32)_ZTV6VectorIP8DataViewE@Base 2.41
 (arch=!x32)_ZTV6VectorIP8DbeInstrE@Base 2.41
 (arch=!x32)_ZTV6VectorIP8Dwr_typeE@Base 2.41
 (arch=!x32)_ZTV6VectorIP8ExpGroupE@Base 2.41
 (arch=!x32)_ZTV6VectorIP8FileDataE@Base 2.41
 (arch=!x32)_ZTV6VectorIP8FunctionE@Base 2.41
 (arch=!x32)_ZTV6VectorIP8HeapDataE@Base 2.41
 (arch=!x32)_ZTV6VectorIP8HistableE@Base 2.41
 (arch=!x32)_ZTV6VectorIP8HwcentryE@Base 2.41
 (arch=!x32)_ZTV6VectorIP8PathTreeE@Base 2.41
 (arch=!x32)_ZTV6VectorIP8ZipEntryE@Base 2.41
 (arch=!x32)_ZTV6VectorIP9CountableE@Base 2.41
 (arch=!x32)_ZTV6VectorIP9FilterSetE@Base 2.41
 (arch=!x32)_ZTV6VectorIP9Hist_dataE@Base 2.41
 (arch=!x32)_ZTV6VectorIP9PropDescrE@Base 2.41
 (arch=!x32)_ZTV6VectorIP9UserLabelE@Base 2.41
 (arch=!x32)_ZTV6VectorIP9pathmap_tE@Base 2.41
 (arch=!x32)_ZTV6VectorIPKcE@Base 2.41
 (arch=!x32)_ZTV6VectorIPN10DefaultMapIP10LoadObjectiE5EntryEE@Base 2.41
 (arch=!x32)_ZTV6VectorIPN10DefaultMapIP8FunctionS2_E5EntryEE@Base 2.41
 (arch=!x32)_ZTV6VectorIPN10DefaultMapIP8FunctioniE5EntryEE@Base 2.41
 (arch=!x32)_ZTV6VectorIPN10DefaultMapIP8FunctionlE5EntryEE@Base 2.41
 (arch=!x32)_ZTV6VectorIPN10DefaultMapIP8HistableiE5EntryEE@Base 2.41
 (arch=!x32)_ZTV6VectorIPN10DefaultMapIPvP8FileDataE5EntryEE@Base 2.41
 (arch=!x32)_ZTV6VectorIPN10DefaultMapIiP7DbeLineE5EntryEE@Base 2.41
 (arch=!x32)_ZTV6VectorIPN10DefaultMapIilE5EntryEE@Base 2.41
 (arch=i386)_ZTV6VectorIPN10DefaultMapIixE5EntryEE@Base 2.41
 (arch=!x32)_ZTV6VectorIPN10DefaultMapIjP3MapIxPvEE5EntryEE@Base 2.41
 (arch=!x32)_ZTV6VectorIPN10DefaultMapIjP3MapIxmEE5EntryEE@Base 2.41
 (arch=i386)_ZTV6VectorIPN10DefaultMapIjP3MapIxyEE5EntryEE@Base 2.41
 (arch=!x32)_ZTV6VectorIPN10DefaultMapIlP8Dwr_typeE5EntryEE@Base 2.41
 (arch=!x32)_ZTV6VectorIPN10DefaultMapIlP8FileDataE5EntryEE@Base 2.41
 (arch=!x32)_ZTV6VectorIPN10DefaultMapImP8HeapDataE5EntryEE@Base 2.41
 (arch=!x32)_ZTV6VectorIPN10DefaultMapImPS_IiEE5EntryEE@Base 2.41
 (arch=!x32)_ZTV6VectorIPN10DefaultMapImiE5EntryEE@Base 2.41
 (arch=i386)_ZTV6VectorIPN10DefaultMapIxP8Dwr_typeE5EntryEE@Base 2.41
 (arch=i386)_ZTV6VectorIPN10DefaultMapIxP8FileDataE5EntryEE@Base 2.41
 (arch=!x32)_ZTV6VectorIPN10DefaultMapIxPvE5EntryEE@Base 2.41
 (arch=!x32)_ZTV6VectorIPN10DefaultMapIxlE5EntryEE@Base 2.41
 (arch=!x32)_ZTV6VectorIPN10DefaultMapIxmE5EntryEE@Base 2.41
 (arch=!x32)_ZTV6VectorIPN10DefaultMapIxxE5EntryEE@Base 2.41
 (arch=i386)_ZTV6VectorIPN10DefaultMapIxyE5EntryEE@Base 2.41
 (arch=i386)_ZTV6VectorIPN10DefaultMapIyP8HeapDataE5EntryEE@Base 2.41
 (arch=i386)_ZTV6VectorIPN10DefaultMapIyPS_IiEE5EntryEE@Base 2.41
 (arch=i386)_ZTV6VectorIPN10DefaultMapIyiE5EntryEE@Base 2.41
 (arch=!x32)_ZTV6VectorIPN10Experiment14RawFramePacketEE@Base 2.41
 (arch=!x32)_ZTV6VectorIPN10Experiment7UIDnodeEE@Base 2.41
 (arch=!x32)_ZTV6VectorIPN10Experiment9MapRecordEE@Base 2.41
 (arch=!x32)_ZTV6VectorIPN10Stats_data10Stats_itemEE@Base 2.41
 (arch=!x32)_ZTV6VectorIPN11CStack_data11CStack_itemEE@Base 2.41
 (arch=!x32)_ZTV6VectorIPN11IntervalMapIxPvE5EntryEE@Base 2.41
 (arch=!x32)_ZTV6VectorIPN11IntervalMapIxmE5EntryEE@Base 2.41
 (arch=i386)_ZTV6VectorIPN11IntervalMapIxyE5EntryEE@Base 2.41
 (arch=!x32)_ZTV6VectorIPN13FilterNumeric9RangePairEE@Base 2.41
 (arch=!x32)_ZTV6VectorIPN7Include11SrcFileInfoEE@Base 2.41
 (arch=!x32)_ZTV6VectorIPN7PRBTree4LMapEE@Base 2.41
 (arch=!x32)_ZTV6VectorIPN8ElfReloc6SrelocEE@Base 2.41
 (arch=!x32)_ZTV6VectorIPN8Ovw_data8Ovw_itemEE@Base 2.41
 (arch=!x32)_ZTV6VectorIPN9Hist_data8HistItemEE@Base 2.41
 (arch=!x32)_ZTV6VectorIPN9StringMapIP10DbeJarFileE5EntryEE@Base 2.41
 (arch=!x32)_ZTV6VectorIPN9StringMapIP10LoadObjectE5EntryEE@Base 2.41
 (arch=!x32)_ZTV6VectorIPN9StringMapIP10SourceFileE5EntryEE@Base 2.41
 (arch=!x32)_ZTV6VectorIPN9StringMapIP6SymbolE5EntryEE@Base 2.41
 (arch=!x32)_ZTV6VectorIPN9StringMapIP7DbeFileE5EntryEE@Base 2.41
 (arch=!x32)_ZTV6VectorIPN9StringMapIiE5EntryEE@Base 2.41
 (arch=!x32)_ZTV6VectorIPS_IP8DataViewEE@Base 2.41
 (arch=!x32)_ZTV6VectorIPS_IP8HistableEE@Base 2.41
 (arch=!x32)_ZTV6VectorIPS_IPcEE@Base 2.41
 (arch=!x32)_ZTV6VectorIPS_IiEE@Base 2.41
 (arch=!x32)_ZTV6VectorIPS_IlEE@Base 2.41
 (arch=!x32)_ZTV6VectorIPS_IxEE@Base 2.41
 (arch=!x32)_ZTV6VectorIPcE@Base 2.41
 (arch=!x32)_ZTV6VectorIPvE@Base 2.41
 (arch=!x32)_ZTV6VectorIbE@Base 2.41
 (arch=!x32)_ZTV6VectorIcE@Base 2.41
 (arch=!x32)_ZTV6VectorIdE@Base 2.41
 (arch=!x32)_ZTV6VectorIiE@Base 2.41
 (arch=!x32)_ZTV6VectorIjE@Base 2.41
 (arch=!x32)_ZTV6VectorIlE@Base 2.41
 (arch=!x32)_ZTV6VectorImE@Base 2.41
 (arch=!x32)_ZTV6VectorIxE@Base 2.41
 (arch=!x32)_ZTV6VectorIyE@Base 2.41
 _ZTV7DbeLine@Base 2.41
 _ZTV7JMethod@Base 2.41
 (arch=!x32)_ZTV8CacheMapImP13CallStackNodeE@Base 2.41
 (arch=!x32)_ZTV8CacheMapImlE@Base 2.41
 (arch=!x32)_ZTV8CacheMapImmE@Base 2.41
 (arch=i386)_ZTV8CacheMapIyP13CallStackNodeE@Base 2.41
 (arch=i386)_ZTV8CacheMapIylE@Base 2.41
 (arch=i386)_ZTV8CacheMapIyyE@Base 2.41
 _ZTV8DataView@Base 2.41
 (arch=!x32)_ZTV8DbeArrayI14DwrAbbrevTableE@Base 2.41
 (arch=!x32)_ZTV8DbeArrayI8Dwr_AttrE@Base 2.41
 _ZTV8DbeInstr@Base 2.41
 _ZTV8FileData@Base 2.41
 _ZTV8Function@Base 2.41
 _ZTV8HeapData@Base 2.41
 _ZTV8Histable@Base 2.41
 _ZTV8Settings@Base 2.41
 _ZTV9ClassFile@Base 2.41
 (arch=!x32)_ZTV9DataINT32@Base 2.41
 (arch=!x32)_ZTV9DataINT64@Base 2.41
 _ZTV9Hist_data@Base 2.41
 _ZTV9PropDescr@Base 2.41
 (arch=!x32)_ZTV9StringMapIP10DbeJarFileE@Base 2.41
 (arch=!x32)_ZTV9StringMapIP10LoadObjectE@Base 2.41
 (arch=!x32)_ZTV9StringMapIP10SourceFileE@Base 2.41
 (arch=!x32)_ZTV9StringMapIP6SymbolE@Base 2.41
 (arch=!x32)_ZTV9StringMapIP7DbeFileE@Base 2.41
 (arch=!x32)_ZTV9StringMapIiE@Base 2.41
 _ZTVN10Experiment17ExperimentHandlerE@Base 2.41
 _ZTVN10Experiment23ExperimentLabelsHandlerE@Base 2.41
 _ZTVN2QL6Parser12syntax_errorE@Base 2.41
 _ZTVN2QL6ParserE@Base 2.41
 __dummy_unsigned_vector@Base 2.41
 assert_level@Base 2.41
 call_stack_size@Base 2.41
 calloc@Base 2.41
 canonical_path@Base 2.41
 crc64@Base 2.41
 dbeSession@Base 2.41
 dbe_create_directories@Base 2.41
 dbe_create_symlink_to_path@Base 2.41
 dbe_delete_file@Base 2.41
 dbe_get_processes@Base 2.41
 dbe_read_dir@Base 2.41
 dbe_sprintf@Base 2.41
 dbe_stat@Base 2.41
 dbe_stat_file@Base 2.41
 dbe_strndup@Base 2.41
 dbe_write@Base 2.41
 dbe_xml2str@Base 2.41
 events_fam6_mod23@Base 2.41
 events_fam6_mod26@Base 2.41
 events_fam6_mod28@Base 2.41
 events_fam6_mod37@Base 2.41
 events_fam6_mod42@Base 2.41
 events_fam6_mod45@Base 2.41
 events_fam6_mod46@Base 2.41
 events_fam6_mod47@Base 2.41
 events_fam6_mod58@Base 2.41
 events_fam6_mod60@Base 2.41
 events_fam6_mod61@Base 2.41
 events_fam6_mod62@Base 2.41
 events_fam6_mod78@Base 2.41
 events_fam6_unknown@Base 2.41
 events_fam_arm@Base 2.41
 free@Base 2.41
 get_cksum@Base 2.41
 get_clock_rate@Base 2.41
 get_hwcdrv@Base 2.41
 get_ncpus@Base 2.41
 get_paren@Base 2.41
 get_prog_name@Base 2.41
 get_relative_link@Base 2.41
 get_relative_path@Base 2.41
 gethrtime@Base 2.41
 gethrvtime@Base 2.41
 hwc_get_attrs@Base 2.41
 hwc_get_cpc_cpuver@Base 2.41
 hwc_get_cpuname@Base 2.41
 hwc_get_default_cntrs2@Base 2.41
 hwc_get_default_cntrs@Base 2.41
 hwc_get_docref@Base 2.41
 hwc_get_max_concurrent@Base 2.41
 hwc_get_max_regs@Base 2.41
 hwc_get_orig_default_cntrs@Base 2.41
 hwc_get_raw_ctrs@Base 2.41
 hwc_get_std_ctrs@Base 2.41
 hwc_hwcentry_specd_string@Base 2.41
 hwc_hwcentry_string@Base 2.41
 hwc_i18n_metric@Base 2.41
 hwc_lookup@Base 2.41
 hwc_memop_string@Base 2.41
 hwc_post_lookup@Base 2.41
 hwc_rate_string@Base 2.41
 hwc_scan_attrs@Base 2.41
 hwc_scan_raw_ctrs@Base 2.41
 hwc_scan_std_ctrs@Base 2.41
 hwc_update_val@Base 2.41
 hwc_usage@Base 2.41
 hwc_usage_f@Base 2.41
 hwc_validate_ctrs@Base 2.41
 hwcdrv_assign_all_regnos@Base 2.41
 hwcdrv_drivers@Base 2.41
 hwcdrv_get_x86_eventnum@Base 2.41
 hwcdrv_lookup_cpuver@Base 2.41
 hwcdrv_pcl_api@Base 2.41
 hwcfuncs_assign_regnos@Base 2.41
 hwcfuncs_bind_descriptor@Base 2.41
 hwcfuncs_bind_hwcentry@Base 2.41
 hwcfuncs_errmsg_get@Base 2.41
 hwcfuncs_get_ctrs@Base 2.41
 hwcfuncs_get_x86_eventsel@Base 2.41
 hwcfuncs_int_capture_errmsg@Base 2.41
 hwcfuncs_int_logerr@Base 2.41
 hwcfuncs_parse_attrs@Base 2.41
 hwcfuncs_parse_ctr@Base 2.41
 init_locale@Base 2.41
 int_max@Base 2.41
 ipc_str_arch_exp@Base 2.41
 ipc_str_clkprof@Base 2.41
 ipc_str_count@Base 2.41
 ipc_str_descendant@Base 2.41
 ipc_str_empty@Base 2.41
 ipc_str_exp_limit@Base 2.41
 ipc_str_heaptrace@Base 2.41
 ipc_str_hwc2_prof@Base 2.41
 ipc_str_hwcprof@Base 2.41
 ipc_str_internal_error@Base 2.41
 ipc_str_iotrace@Base 2.41
 ipc_str_javaprof@Base 2.41
 ipc_str_off@Base 2.41
 ipc_str_on@Base 2.41
 ipc_str_pause_resume_sig@Base 2.41
 ipc_str_prof_idle@Base 2.41
 ipc_str_sample@Base 2.41
 ipc_str_sample_sig@Base 2.41
 ipc_str_src@Base 2.41
 ipc_str_synctrace@Base 2.41
 ipc_str_time_limit@Base 2.41
 ipc_str_unknown_control@Base 2.41
 ipc_str_unlimited@Base 2.41
 ipc_str_usedldobjects@Base 2.41
 ipc_str_usedsrc@Base 2.41
 malloc@Base 2.41
 mpmt_debug_opt@Base 2.41
 nPop@Base 2.41
 nPush@Base 2.41
 parse_fname@Base 2.41
 parse_qstring@Base 2.41
 perfctr_attrs_table@Base 2.41
 popCnt3@Base 2.41
 popCnt@Base 2.41
 pushCnt3@Base 2.41
 pushCnt@Base 2.41
 read_from_file@Base 2.41
 read_line@Base 2.41
 realloc@Base 2.41
 regno_is_valid@Base 2.41
 show_regs@Base 2.41
 signo_max@Base 2.41
 strrpbrk@Base 2.41
 strsigno@Base 2.41
 strstr_r@Base 2.41
 strtosigno@Base 2.41
 swapByteOrder@Base 2.41
 theApplication@Base 2.41
 theDbeApplication@Base 2.41
 total_calls_add_stack@Base 2.41
 total_nodes@Base 2.41
 total_stacks@Base 2.41
 tsadd@Base 2.41
 tscmp@Base 2.41
 tssub@Base 2.41
